ARM GAS  C:\Users\FRANCI~2\AppData\Local\Temp\cccGvjmb.s 			page 1


   1              		.syntax unified
   2              		.cpu cortex-m3
   3              		.fpu softvfp
   4              		.eabi_attribute 20, 1
   5              		.eabi_attribute 21, 1
   6              		.eabi_attribute 23, 3
   7              		.eabi_attribute 24, 1
   8              		.eabi_attribute 25, 1
   9              		.eabi_attribute 26, 1
  10              		.eabi_attribute 30, 1
  11              		.eabi_attribute 34, 1
  12              		.eabi_attribute 18, 4
  13              		.thumb
  14              		.syntax unified
  15              		.file	"functions.c"
  16              		.text
  17              	.Ltext0:
  18              		.cfi_sections	.debug_frame
  19              		.section	.text.findMaximum,"ax",%progbits
  20              		.align	2
  21              		.global	findMaximum
  22              		.thumb
  23              		.thumb_func
  24              		.type	findMaximum, %function
  25              	findMaximum:
  26              	.LFB64:
  27              		.file 1 "functions.c"
   1:functions.c   **** /* ========================================
   2:functions.c   ****  *
   3:functions.c   ****  * Copyright The University of Auckland, CS301 Group 15, 2022
   4:functions.c   ****  * All Rights Reserved
   5:functions.c   ****  * UNPUBLISHED, LICENSED SOFTWARE.
   6:functions.c   ****  *
   7:functions.c   ****  * CONFIDENTIAL AND PROPRIETARY INFORMATION
   8:functions.c   ****  * WHICH IS THE PROPERTY OF The University of Auckland, CS301 Group 15.
   9:functions.c   ****  *
  10:functions.c   ****  * ========================================
  11:functions.c   **** */
  12:functions.c   **** #include <stdio.h>
  13:functions.c   **** #include <project.h>
  14:functions.c   **** #include <string.h>
  15:functions.c   **** 
  16:functions.c   **** int speed=0;
  17:functions.c   **** int offset = 15;
  18:functions.c   **** int startDuty = 90;
  19:functions.c   **** int leftDuty = 97;
  20:functions.c   **** int rightDuty = 0;
  21:functions.c   **** 
  22:functions.c   **** int findMaximum(int array[10]){
  28              		.loc 1 22 0
  29              		.cfi_startproc
  30              		@ args = 0, pretend = 0, frame = 0
  31              		@ frame_needed = 0, uses_anonymous_args = 0
  32              		@ link register save eliminated.
  33              	.LVL0:
  34              	.LBB2:
  23:functions.c   ****     int maximum = 0;
ARM GAS  C:\Users\FRANCI~2\AppData\Local\Temp\cccGvjmb.s 			page 2


  24:functions.c   ****         for(int i = 0; i < 10; i ++){
  35              		.loc 1 24 0
  36 0000 0023     		movs	r3, #0
  37              	.LBE2:
  23:functions.c   ****     int maximum = 0;
  38              		.loc 1 23 0
  39 0002 1946     		mov	r1, r3
  40              	.LBB3:
  41              		.loc 1 24 0
  42 0004 05E0     		b	.L2
  43              	.LVL1:
  44              	.L4:
  25:functions.c   ****             if (array[i]> maximum){
  45              		.loc 1 25 0
  46 0006 50F82320 		ldr	r2, [r0, r3, lsl #2]
  47 000a 9142     		cmp	r1, r2
  48 000c 00DA     		bge	.L3
  26:functions.c   ****              maximum = array[i];
  49              		.loc 1 26 0
  50 000e 1146     		mov	r1, r2
  51              	.LVL2:
  52              	.L3:
  24:functions.c   ****             if (array[i]> maximum){
  53              		.loc 1 24 0 discriminator 2
  54 0010 0133     		adds	r3, r3, #1
  55              	.LVL3:
  56              	.L2:
  24:functions.c   ****             if (array[i]> maximum){
  57              		.loc 1 24 0 is_stmt 0 discriminator 1
  58 0012 092B     		cmp	r3, #9
  59 0014 F7DD     		ble	.L4
  60              	.LBE3:
  27:functions.c   ****             }  
  28:functions.c   ****         }
  29:functions.c   ****         return maximum;
  30:functions.c   **** }
  61              		.loc 1 30 0 is_stmt 1
  62 0016 0846     		mov	r0, r1
  63              	.LVL4:
  64 0018 7047     		bx	lr
  65              		.cfi_endproc
  66              	.LFE64:
  67              		.size	findMaximum, .-findMaximum
  68 001a 00BF     		.section	.text.findMinimum,"ax",%progbits
  69              		.align	2
  70              		.global	findMinimum
  71              		.thumb
  72              		.thumb_func
  73              		.type	findMinimum, %function
  74              	findMinimum:
  75              	.LFB65:
  31:functions.c   **** 
  32:functions.c   **** int findMinimum(int array[10]){
  76              		.loc 1 32 0
  77              		.cfi_startproc
  78              		@ args = 0, pretend = 0, frame = 0
  79              		@ frame_needed = 0, uses_anonymous_args = 0
ARM GAS  C:\Users\FRANCI~2\AppData\Local\Temp\cccGvjmb.s 			page 3


  80              		@ link register save eliminated.
  81              	.LVL5:
  82              	.LBB4:
  33:functions.c   ****     int minimum = 10000;
  34:functions.c   ****         for(int i = 0; i < 10; i ++){
  83              		.loc 1 34 0
  84 0000 0023     		movs	r3, #0
  85              	.LBE4:
  33:functions.c   ****     int minimum = 10000;
  86              		.loc 1 33 0
  87 0002 42F21071 		movw	r1, #10000
  88              	.LBB5:
  89              		.loc 1 34 0
  90 0006 05E0     		b	.L7
  91              	.LVL6:
  92              	.L9:
  35:functions.c   ****             if (array[i] < minimum){
  93              		.loc 1 35 0
  94 0008 50F82320 		ldr	r2, [r0, r3, lsl #2]
  95 000c 9142     		cmp	r1, r2
  96 000e 00DD     		ble	.L8
  36:functions.c   ****              minimum = array[i];
  97              		.loc 1 36 0
  98 0010 1146     		mov	r1, r2
  99              	.LVL7:
 100              	.L8:
  34:functions.c   ****             if (array[i] < minimum){
 101              		.loc 1 34 0 discriminator 2
 102 0012 0133     		adds	r3, r3, #1
 103              	.LVL8:
 104              	.L7:
  34:functions.c   ****             if (array[i] < minimum){
 105              		.loc 1 34 0 is_stmt 0 discriminator 1
 106 0014 092B     		cmp	r3, #9
 107 0016 F7DD     		ble	.L9
 108              	.LBE5:
  37:functions.c   ****             }  
  38:functions.c   ****         }
  39:functions.c   ****         return minimum;
  40:functions.c   **** }
 109              		.loc 1 40 0 is_stmt 1
 110 0018 0846     		mov	r0, r1
 111              	.LVL9:
 112 001a 7047     		bx	lr
 113              		.cfi_endproc
 114              	.LFE65:
 115              		.size	findMinimum, .-findMinimum
 116              		.section	.text.usbPutString,"ax",%progbits
 117              		.align	2
 118              		.global	usbPutString
 119              		.thumb
 120              		.thumb_func
 121              		.type	usbPutString, %function
 122              	usbPutString:
 123              	.LFB66:
  41:functions.c   **** 
  42:functions.c   **** void usbPutString(char *s)
ARM GAS  C:\Users\FRANCI~2\AppData\Local\Temp\cccGvjmb.s 			page 4


  43:functions.c   **** {
 124              		.loc 1 43 0
 125              		.cfi_startproc
 126              		@ args = 0, pretend = 0, frame = 0
 127              		@ frame_needed = 0, uses_anonymous_args = 0
 128              	.LVL10:
 129 0000 10B5     		push	{r4, lr}
 130              		.cfi_def_cfa_offset 8
 131              		.cfi_offset 4, -8
 132              		.cfi_offset 14, -4
 133 0002 0446     		mov	r4, r0
 134              	.LVL11:
 135              	.L12:
  44:functions.c   **** // !! Assumes that *s is a string with allocated space >=64 chars     
  45:functions.c   **** //  Since USB implementation retricts data packets to 64 chars, this function truncates the
  46:functions.c   **** //  length to 62 char (63rd char is a '!')
  47:functions.c   ****     
  48:functions.c   ****     while (USBUART_1_CDCIsReady() == 0);
 136              		.loc 1 48 0 discriminator 1
 137 0004 FFF7FEFF 		bl	USBUART_1_CDCIsReady
 138              	.LVL12:
 139 0008 0028     		cmp	r0, #0
 140 000a FBD0     		beq	.L12
  49:functions.c   ****     s[63]='\0';
 141              		.loc 1 49 0
 142 000c 0023     		movs	r3, #0
 143 000e 84F83F30 		strb	r3, [r4, #63]
  50:functions.c   ****     s[62]='!';
 144              		.loc 1 50 0
 145 0012 2123     		movs	r3, #33
 146 0014 84F83E30 		strb	r3, [r4, #62]
  51:functions.c   ****     USBUART_1_PutData((uint8*)s,strlen(s));
 147              		.loc 1 51 0
 148 0018 2046     		mov	r0, r4
 149 001a FFF7FEFF 		bl	strlen
 150              	.LVL13:
 151 001e 81B2     		uxth	r1, r0
 152 0020 2046     		mov	r0, r4
 153 0022 FFF7FEFF 		bl	USBUART_1_PutData
 154              	.LVL14:
 155 0026 10BD     		pop	{r4, pc}
 156              		.cfi_endproc
 157              	.LFE66:
 158              		.size	usbPutString, .-usbPutString
 159              		.section	.text.DoLeftTurn,"ax",%progbits
 160              		.align	2
 161              		.global	DoLeftTurn
 162              		.thumb
 163              		.thumb_func
 164              		.type	DoLeftTurn, %function
 165              	DoLeftTurn:
 166              	.LFB67:
  52:functions.c   **** }
  53:functions.c   **** 
  54:functions.c   **** void DoLeftTurn(){
 167              		.loc 1 54 0
 168              		.cfi_startproc
ARM GAS  C:\Users\FRANCI~2\AppData\Local\Temp\cccGvjmb.s 			page 5


 169              		@ args = 0, pretend = 0, frame = 0
 170              		@ frame_needed = 0, uses_anonymous_args = 0
 171 0000 08B5     		push	{r3, lr}
 172              		.cfi_def_cfa_offset 8
 173              		.cfi_offset 3, -8
 174              		.cfi_offset 14, -4
  55:functions.c   ****     PWM_leftmotor_Start();
 175              		.loc 1 55 0
 176 0002 FFF7FEFF 		bl	PWM_leftmotor_Start
 177              	.LVL15:
  56:functions.c   ****     PWM_rightmotor_Start();
 178              		.loc 1 56 0
 179 0006 FFF7FEFF 		bl	PWM_rightmotor_Start
 180              	.LVL16:
  57:functions.c   ****     
  58:functions.c   ****     //PWM_leftmotor_WriteCompare1(80);
  59:functions.c   ****     PWM_leftmotor_WriteCompare1(90);
 181              		.loc 1 59 0
 182 000a 5A20     		movs	r0, #90
 183 000c FFF7FEFF 		bl	PWM_leftmotor_WriteCompare1
 184              	.LVL17:
  60:functions.c   ****     PWM_leftmotor_WriteCompare2(0);
 185              		.loc 1 60 0
 186 0010 0020     		movs	r0, #0
 187 0012 FFF7FEFF 		bl	PWM_leftmotor_WriteCompare2
 188              	.LVL18:
  61:functions.c   ****     
  62:functions.c   ****     //PWM_rightmotor_WriteCompare1(60);
  63:functions.c   ****     PWM_rightmotor_WriteCompare1(90);      // prev value = 120
 189              		.loc 1 63 0
 190 0016 5A20     		movs	r0, #90
 191 0018 FFF7FEFF 		bl	PWM_rightmotor_WriteCompare1
 192              	.LVL19:
  64:functions.c   ****     PWM_rightmotor_WriteCompare2(0);
 193              		.loc 1 64 0
 194 001c 0020     		movs	r0, #0
 195 001e FFF7FEFF 		bl	PWM_rightmotor_WriteCompare2
 196              	.LVL20:
 197 0022 08BD     		pop	{r3, pc}
 198              		.cfi_endproc
 199              	.LFE67:
 200              		.size	DoLeftTurn, .-DoLeftTurn
 201              		.section	.text.DoLeftToStraight,"ax",%progbits
 202              		.align	2
 203              		.global	DoLeftToStraight
 204              		.thumb
 205              		.thumb_func
 206              		.type	DoLeftToStraight, %function
 207              	DoLeftToStraight:
 208              	.LFB68:
  65:functions.c   **** }
  66:functions.c   **** 
  67:functions.c   **** void DoLeftToStraight(){
 209              		.loc 1 67 0
 210              		.cfi_startproc
 211              		@ args = 0, pretend = 0, frame = 0
 212              		@ frame_needed = 0, uses_anonymous_args = 0
ARM GAS  C:\Users\FRANCI~2\AppData\Local\Temp\cccGvjmb.s 			page 6


 213 0000 08B5     		push	{r3, lr}
 214              		.cfi_def_cfa_offset 8
 215              		.cfi_offset 3, -8
 216              		.cfi_offset 14, -4
  68:functions.c   **** 
  69:functions.c   ****     PWM_leftmotor_Start();
 217              		.loc 1 69 0
 218 0002 FFF7FEFF 		bl	PWM_leftmotor_Start
 219              	.LVL21:
  70:functions.c   ****     PWM_rightmotor_Start();
 220              		.loc 1 70 0
 221 0006 FFF7FEFF 		bl	PWM_rightmotor_Start
 222              	.LVL22:
  71:functions.c   ****     
  72:functions.c   ****     //PWM_leftmotor_WriteCompare1(80);
  73:functions.c   ****     PWM_leftmotor_WriteCompare1(90);
 223              		.loc 1 73 0
 224 000a 5A20     		movs	r0, #90
 225 000c FFF7FEFF 		bl	PWM_leftmotor_WriteCompare1
 226              	.LVL23:
  74:functions.c   ****     PWM_leftmotor_WriteCompare2(0);
 227              		.loc 1 74 0
 228 0010 0020     		movs	r0, #0
 229 0012 FFF7FEFF 		bl	PWM_leftmotor_WriteCompare2
 230              	.LVL24:
  75:functions.c   ****     
  76:functions.c   ****     //PWM_rightmotor_WriteCompare1(60);
  77:functions.c   ****     PWM_rightmotor_WriteCompare1(100);      // prev value = 120
 231              		.loc 1 77 0
 232 0016 6420     		movs	r0, #100
 233 0018 FFF7FEFF 		bl	PWM_rightmotor_WriteCompare1
 234              	.LVL25:
  78:functions.c   ****     PWM_rightmotor_WriteCompare2(0);
 235              		.loc 1 78 0
 236 001c 0020     		movs	r0, #0
 237 001e FFF7FEFF 		bl	PWM_rightmotor_WriteCompare2
 238              	.LVL26:
 239 0022 08BD     		pop	{r3, pc}
 240              		.cfi_endproc
 241              	.LFE68:
 242              		.size	DoLeftToStraight, .-DoLeftToStraight
 243              		.section	.text.DoRightTurn,"ax",%progbits
 244              		.align	2
 245              		.global	DoRightTurn
 246              		.thumb
 247              		.thumb_func
 248              		.type	DoRightTurn, %function
 249              	DoRightTurn:
 250              	.LFB69:
  79:functions.c   **** 
  80:functions.c   **** }
  81:functions.c   **** 
  82:functions.c   ****  void DoRightTurn() {
 251              		.loc 1 82 0
 252              		.cfi_startproc
 253              		@ args = 0, pretend = 0, frame = 0
 254              		@ frame_needed = 0, uses_anonymous_args = 0
ARM GAS  C:\Users\FRANCI~2\AppData\Local\Temp\cccGvjmb.s 			page 7


 255 0000 08B5     		push	{r3, lr}
 256              		.cfi_def_cfa_offset 8
 257              		.cfi_offset 3, -8
 258              		.cfi_offset 14, -4
  83:functions.c   ****     PWM_leftmotor_Start();
 259              		.loc 1 83 0
 260 0002 FFF7FEFF 		bl	PWM_leftmotor_Start
 261              	.LVL27:
  84:functions.c   ****     PWM_rightmotor_Start();
 262              		.loc 1 84 0
 263 0006 FFF7FEFF 		bl	PWM_rightmotor_Start
 264              	.LVL28:
  85:functions.c   ****     
  86:functions.c   ****     // initiate right turn
  87:functions.c   ****     PWM_leftmotor_WriteCompare1(0);
 265              		.loc 1 87 0
 266 000a 0020     		movs	r0, #0
 267 000c FFF7FEFF 		bl	PWM_leftmotor_WriteCompare1
 268              	.LVL29:
  88:functions.c   ****     //PWM_leftmotor_WriteCompare2(60);
  89:functions.c   ****     PWM_leftmotor_WriteCompare2(90);     // going forward -> 140 works 
 269              		.loc 1 89 0
 270 0010 5A20     		movs	r0, #90
 271 0012 FFF7FEFF 		bl	PWM_leftmotor_WriteCompare2
 272              	.LVL30:
  90:functions.c   ****         
  91:functions.c   ****     // right turn; right motor reverse
  92:functions.c   ****     PWM_rightmotor_WriteCompare1(0);
 273              		.loc 1 92 0
 274 0016 0020     		movs	r0, #0
 275 0018 FFF7FEFF 		bl	PWM_rightmotor_WriteCompare1
 276              	.LVL31:
  93:functions.c   ****     PWM_rightmotor_WriteCompare2(90);    // reverse
 277              		.loc 1 93 0
 278 001c 5A20     		movs	r0, #90
 279 001e FFF7FEFF 		bl	PWM_rightmotor_WriteCompare2
 280              	.LVL32:
 281 0022 08BD     		pop	{r3, pc}
 282              		.cfi_endproc
 283              	.LFE69:
 284              		.size	DoRightTurn, .-DoRightTurn
 285              		.section	.text.GoStraight,"ax",%progbits
 286              		.align	2
 287              		.global	GoStraight
 288              		.thumb
 289              		.thumb_func
 290              		.type	GoStraight, %function
 291              	GoStraight:
 292              	.LFB70:
  94:functions.c   ****     
  95:functions.c   **** }
  96:functions.c   **** 
  97:functions.c   **** void GoStraight(){
 293              		.loc 1 97 0
 294              		.cfi_startproc
 295              		@ args = 0, pretend = 0, frame = 0
 296              		@ frame_needed = 0, uses_anonymous_args = 0
ARM GAS  C:\Users\FRANCI~2\AppData\Local\Temp\cccGvjmb.s 			page 8


 297 0000 08B5     		push	{r3, lr}
 298              		.cfi_def_cfa_offset 8
 299              		.cfi_offset 3, -8
 300              		.cfi_offset 14, -4
  98:functions.c   ****     PWM_leftmotor_Start();
 301              		.loc 1 98 0
 302 0002 FFF7FEFF 		bl	PWM_leftmotor_Start
 303              	.LVL33:
  99:functions.c   ****     PWM_rightmotor_Start();
 304              		.loc 1 99 0
 305 0006 FFF7FEFF 		bl	PWM_rightmotor_Start
 306              	.LVL34:
 100:functions.c   ****     
 101:functions.c   ****     PWM_leftmotor_WriteCompare1(0);
 307              		.loc 1 101 0
 308 000a 0020     		movs	r0, #0
 309 000c FFF7FEFF 		bl	PWM_leftmotor_WriteCompare1
 310              	.LVL35:
 102:functions.c   ****     PWM_leftmotor_WriteCompare2(97);
 311              		.loc 1 102 0
 312 0010 6120     		movs	r0, #97
 313 0012 FFF7FEFF 		bl	PWM_leftmotor_WriteCompare2
 314              	.LVL36:
 103:functions.c   **** 
 104:functions.c   ****     PWM_rightmotor_WriteCompare1(90);
 315              		.loc 1 104 0
 316 0016 5A20     		movs	r0, #90
 317 0018 FFF7FEFF 		bl	PWM_rightmotor_WriteCompare1
 318              	.LVL37:
 105:functions.c   ****     PWM_rightmotor_WriteCompare2(0);
 319              		.loc 1 105 0
 320 001c 0020     		movs	r0, #0
 321 001e FFF7FEFF 		bl	PWM_rightmotor_WriteCompare2
 322              	.LVL38:
 323 0022 08BD     		pop	{r3, pc}
 324              		.cfi_endproc
 325              	.LFE70:
 326              		.size	GoStraight, .-GoStraight
 327              		.section	.text.Stop,"ax",%progbits
 328              		.align	2
 329              		.global	Stop
 330              		.thumb
 331              		.thumb_func
 332              		.type	Stop, %function
 333              	Stop:
 334              	.LFB71:
 106:functions.c   **** }
 107:functions.c   **** void Stop(){
 335              		.loc 1 107 0
 336              		.cfi_startproc
 337              		@ args = 0, pretend = 0, frame = 0
 338              		@ frame_needed = 0, uses_anonymous_args = 0
 339 0000 08B5     		push	{r3, lr}
 340              		.cfi_def_cfa_offset 8
 341              		.cfi_offset 3, -8
 342              		.cfi_offset 14, -4
 108:functions.c   ****     PWM_leftmotor_WriteCompare1(140);
ARM GAS  C:\Users\FRANCI~2\AppData\Local\Temp\cccGvjmb.s 			page 9


 343              		.loc 1 108 0
 344 0002 8C20     		movs	r0, #140
 345 0004 FFF7FEFF 		bl	PWM_leftmotor_WriteCompare1
 346              	.LVL39:
 109:functions.c   ****     PWM_leftmotor_WriteCompare2(140);
 347              		.loc 1 109 0
 348 0008 8C20     		movs	r0, #140
 349 000a FFF7FEFF 		bl	PWM_leftmotor_WriteCompare2
 350              	.LVL40:
 110:functions.c   **** 
 111:functions.c   ****     PWM_rightmotor_WriteCompare1(140);
 351              		.loc 1 111 0
 352 000e 8C20     		movs	r0, #140
 353 0010 FFF7FEFF 		bl	PWM_rightmotor_WriteCompare1
 354              	.LVL41:
 112:functions.c   ****     PWM_rightmotor_WriteCompare2(140);
 355              		.loc 1 112 0
 356 0014 8C20     		movs	r0, #140
 357 0016 FFF7FEFF 		bl	PWM_rightmotor_WriteCompare2
 358              	.LVL42:
 359 001a 08BD     		pop	{r3, pc}
 360              		.cfi_endproc
 361              	.LFE71:
 362              		.size	Stop, .-Stop
 363              		.section	.text.ArrangeToLeft,"ax",%progbits
 364              		.align	2
 365              		.global	ArrangeToLeft
 366              		.thumb
 367              		.thumb_func
 368              		.type	ArrangeToLeft, %function
 369              	ArrangeToLeft:
 370              	.LFB72:
 113:functions.c   **** }
 114:functions.c   **** 
 115:functions.c   **** void ArrangeToLeft(){
 371              		.loc 1 115 0
 372              		.cfi_startproc
 373              		@ args = 0, pretend = 0, frame = 0
 374              		@ frame_needed = 0, uses_anonymous_args = 0
 375 0000 10B5     		push	{r4, lr}
 376              		.cfi_def_cfa_offset 8
 377              		.cfi_offset 4, -8
 378              		.cfi_offset 14, -4
 116:functions.c   ****     PWM_leftmotor_Start();
 379              		.loc 1 116 0
 380 0002 FFF7FEFF 		bl	PWM_leftmotor_Start
 381              	.LVL43:
 117:functions.c   ****     PWM_rightmotor_Start();
 382              		.loc 1 117 0
 383 0006 FFF7FEFF 		bl	PWM_rightmotor_Start
 384              	.LVL44:
 118:functions.c   ****     PWM_leftmotor_WriteCompare1(0);
 385              		.loc 1 118 0
 386 000a 0020     		movs	r0, #0
 387 000c FFF7FEFF 		bl	PWM_leftmotor_WriteCompare1
 388              	.LVL45:
 119:functions.c   ****     
ARM GAS  C:\Users\FRANCI~2\AppData\Local\Temp\cccGvjmb.s 			page 10


 120:functions.c   ****     leftDuty = leftDuty+ offset;
 389              		.loc 1 120 0
 390 0010 094C     		ldr	r4, .L26
 391 0012 2068     		ldr	r0, [r4]
 392 0014 6368     		ldr	r3, [r4, #4]
 393 0016 1844     		add	r0, r0, r3
 394 0018 2060     		str	r0, [r4]
 121:functions.c   ****     PWM_leftmotor_WriteCompare2(leftDuty);
 395              		.loc 1 121 0
 396 001a C0B2     		uxtb	r0, r0
 397 001c FFF7FEFF 		bl	PWM_leftmotor_WriteCompare2
 398              	.LVL46:
 122:functions.c   ****     
 123:functions.c   ****     PWM_rightmotor_WriteCompare1(startDuty);
 399              		.loc 1 123 0
 400 0020 207A     		ldrb	r0, [r4, #8]	@ zero_extendqisi2
 401 0022 FFF7FEFF 		bl	PWM_rightmotor_WriteCompare1
 402              	.LVL47:
 124:functions.c   ****     
 125:functions.c   ****     rightDuty = rightDuty+ offset;
 403              		.loc 1 125 0
 404 0026 054A     		ldr	r2, .L26+4
 405 0028 1068     		ldr	r0, [r2]
 406 002a 6368     		ldr	r3, [r4, #4]
 407 002c 1844     		add	r0, r0, r3
 408 002e 1060     		str	r0, [r2]
 126:functions.c   ****     PWM_rightmotor_WriteCompare2(rightDuty);
 409              		.loc 1 126 0
 410 0030 C0B2     		uxtb	r0, r0
 411 0032 FFF7FEFF 		bl	PWM_rightmotor_WriteCompare2
 412              	.LVL48:
 413 0036 10BD     		pop	{r4, pc}
 414              	.L27:
 415              		.align	2
 416              	.L26:
 417 0038 00000000 		.word	.LANCHOR0
 418 003c 00000000 		.word	.LANCHOR1
 419              		.cfi_endproc
 420              	.LFE72:
 421              		.size	ArrangeToLeft, .-ArrangeToLeft
 422              		.section	.text.ArrangeToRight,"ax",%progbits
 423              		.align	2
 424              		.global	ArrangeToRight
 425              		.thumb
 426              		.thumb_func
 427              		.type	ArrangeToRight, %function
 428              	ArrangeToRight:
 429              	.LFB73:
 127:functions.c   **** }
 128:functions.c   **** 
 129:functions.c   **** void ArrangeToRight(){
 430              		.loc 1 129 0
 431              		.cfi_startproc
 432              		@ args = 0, pretend = 0, frame = 0
 433              		@ frame_needed = 0, uses_anonymous_args = 0
 434 0000 10B5     		push	{r4, lr}
 435              		.cfi_def_cfa_offset 8
ARM GAS  C:\Users\FRANCI~2\AppData\Local\Temp\cccGvjmb.s 			page 11


 436              		.cfi_offset 4, -8
 437              		.cfi_offset 14, -4
 130:functions.c   ****     PWM_leftmotor_Start();
 438              		.loc 1 130 0
 439 0002 FFF7FEFF 		bl	PWM_leftmotor_Start
 440              	.LVL49:
 131:functions.c   ****     PWM_rightmotor_Start();
 441              		.loc 1 131 0
 442 0006 FFF7FEFF 		bl	PWM_rightmotor_Start
 443              	.LVL50:
 132:functions.c   ****     PWM_leftmotor_WriteCompare1(0+offset);
 444              		.loc 1 132 0
 445 000a 084C     		ldr	r4, .L30
 446 000c 2079     		ldrb	r0, [r4, #4]	@ zero_extendqisi2
 447 000e FFF7FEFF 		bl	PWM_leftmotor_WriteCompare1
 448              	.LVL51:
 133:functions.c   ****     PWM_leftmotor_WriteCompare2(startDuty);
 449              		.loc 1 133 0
 450 0012 207A     		ldrb	r0, [r4, #8]	@ zero_extendqisi2
 451 0014 FFF7FEFF 		bl	PWM_leftmotor_WriteCompare2
 452              	.LVL52:
 134:functions.c   **** 
 135:functions.c   ****     PWM_rightmotor_WriteCompare1(startDuty+offset);
 453              		.loc 1 135 0
 454 0018 A068     		ldr	r0, [r4, #8]
 455 001a 6368     		ldr	r3, [r4, #4]
 456 001c 1844     		add	r0, r0, r3
 457 001e C0B2     		uxtb	r0, r0
 458 0020 FFF7FEFF 		bl	PWM_rightmotor_WriteCompare1
 459              	.LVL53:
 136:functions.c   ****     PWM_rightmotor_WriteCompare2(0);
 460              		.loc 1 136 0
 461 0024 0020     		movs	r0, #0
 462 0026 FFF7FEFF 		bl	PWM_rightmotor_WriteCompare2
 463              	.LVL54:
 464 002a 10BD     		pop	{r4, pc}
 465              	.L31:
 466              		.align	2
 467              	.L30:
 468 002c 00000000 		.word	.LANCHOR0
 469              		.cfi_endproc
 470              	.LFE73:
 471              		.size	ArrangeToRight, .-ArrangeToRight
 472              		.section	.text.updateMotorSpeed_Right,"ax",%progbits
 473              		.align	2
 474              		.global	updateMotorSpeed_Right
 475              		.thumb
 476              		.thumb_func
 477              		.type	updateMotorSpeed_Right, %function
 478              	updateMotorSpeed_Right:
 479              	.LFB74:
 137:functions.c   **** }
 138:functions.c   **** 
 139:functions.c   **** void updateMotorSpeed_Right(int speed) {    
 480              		.loc 1 139 0
 481              		.cfi_startproc
 482              		@ args = 0, pretend = 0, frame = 0
ARM GAS  C:\Users\FRANCI~2\AppData\Local\Temp\cccGvjmb.s 			page 12


 483              		@ frame_needed = 0, uses_anonymous_args = 0
 484              	.LVL55:
 485 0000 10B5     		push	{r4, lr}
 486              		.cfi_def_cfa_offset 8
 487              		.cfi_offset 4, -8
 488              		.cfi_offset 14, -4
 140:functions.c   ****     PWM_rightmotor_WriteCompare1(255 - speed);
 489              		.loc 1 140 0
 490 0002 C4B2     		uxtb	r4, r0
 491 0004 E043     		mvns	r0, r4
 492              	.LVL56:
 493 0006 C0B2     		uxtb	r0, r0
 494 0008 FFF7FEFF 		bl	PWM_rightmotor_WriteCompare1
 495              	.LVL57:
 141:functions.c   ****     PWM_rightmotor_WriteCompare2(255-(255-speed));
 496              		.loc 1 141 0
 497 000c 2046     		mov	r0, r4
 498 000e FFF7FEFF 		bl	PWM_rightmotor_WriteCompare2
 499              	.LVL58:
 500 0012 10BD     		pop	{r4, pc}
 501              		.cfi_endproc
 502              	.LFE74:
 503              		.size	updateMotorSpeed_Right, .-updateMotorSpeed_Right
 504              		.section	.text.updateMotorSpeed_Left,"ax",%progbits
 505              		.align	2
 506              		.global	updateMotorSpeed_Left
 507              		.thumb
 508              		.thumb_func
 509              		.type	updateMotorSpeed_Left, %function
 510              	updateMotorSpeed_Left:
 511              	.LFB75:
 142:functions.c   **** }
 143:functions.c   **** 
 144:functions.c   **** void updateMotorSpeed_Left(int speed) {    
 512              		.loc 1 144 0
 513              		.cfi_startproc
 514              		@ args = 0, pretend = 0, frame = 0
 515              		@ frame_needed = 0, uses_anonymous_args = 0
 516              	.LVL59:
 517 0000 10B5     		push	{r4, lr}
 518              		.cfi_def_cfa_offset 8
 519              		.cfi_offset 4, -8
 520              		.cfi_offset 14, -4
 145:functions.c   ****     PWM_leftmotor_WriteCompare2(255 - speed);
 521              		.loc 1 145 0
 522 0002 C4B2     		uxtb	r4, r0
 523 0004 E043     		mvns	r0, r4
 524              	.LVL60:
 525 0006 C0B2     		uxtb	r0, r0
 526 0008 FFF7FEFF 		bl	PWM_leftmotor_WriteCompare2
 527              	.LVL61:
 146:functions.c   ****     PWM_leftmotor_WriteCompare1(255-(255-speed));
 528              		.loc 1 146 0
 529 000c 2046     		mov	r0, r4
 530 000e FFF7FEFF 		bl	PWM_leftmotor_WriteCompare1
 531              	.LVL62:
 532 0012 10BD     		pop	{r4, pc}
ARM GAS  C:\Users\FRANCI~2\AppData\Local\Temp\cccGvjmb.s 			page 13


 533              		.cfi_endproc
 534              	.LFE75:
 535              		.size	updateMotorSpeed_Left, .-updateMotorSpeed_Left
 536              		.section	.text.updateMotorSpeed,"ax",%progbits
 537              		.align	2
 538              		.global	updateMotorSpeed
 539              		.thumb
 540              		.thumb_func
 541              		.type	updateMotorSpeed, %function
 542              	updateMotorSpeed:
 543              	.LFB76:
 147:functions.c   **** }
 148:functions.c   **** 
 149:functions.c   **** void updateMotorSpeed(int speed) {
 544              		.loc 1 149 0
 545              		.cfi_startproc
 546              		@ args = 0, pretend = 0, frame = 0
 547              		@ frame_needed = 0, uses_anonymous_args = 0
 548              	.LVL63:
 549 0000 10B5     		push	{r4, lr}
 550              		.cfi_def_cfa_offset 8
 551              		.cfi_offset 4, -8
 552              		.cfi_offset 14, -4
 553 0002 0446     		mov	r4, r0
 150:functions.c   ****     updateMotorSpeed_Right(speed);
 554              		.loc 1 150 0
 555 0004 FFF7FEFF 		bl	updateMotorSpeed_Right
 556              	.LVL64:
 151:functions.c   ****     updateMotorSpeed_Left(speed);   
 557              		.loc 1 151 0
 558 0008 2046     		mov	r0, r4
 559 000a FFF7FEFF 		bl	updateMotorSpeed_Left
 560              	.LVL65:
 561 000e 10BD     		pop	{r4, pc}
 562              		.cfi_endproc
 563              	.LFE76:
 564              		.size	updateMotorSpeed, .-updateMotorSpeed
 565              		.global	rightDuty
 566              		.global	leftDuty
 567              		.global	startDuty
 568              		.global	offset
 569              		.global	speed
 570              		.data
 571              		.align	2
 572              		.set	.LANCHOR0,. + 0
 573              		.type	leftDuty, %object
 574              		.size	leftDuty, 4
 575              	leftDuty:
 576 0000 61000000 		.word	97
 577              		.type	offset, %object
 578              		.size	offset, 4
 579              	offset:
 580 0004 0F000000 		.word	15
 581              		.type	startDuty, %object
 582              		.size	startDuty, 4
 583              	startDuty:
 584 0008 5A000000 		.word	90
ARM GAS  C:\Users\FRANCI~2\AppData\Local\Temp\cccGvjmb.s 			page 14


 585              		.bss
 586              		.align	2
 587              		.set	.LANCHOR1,. + 0
 588              		.type	rightDuty, %object
 589              		.size	rightDuty, 4
 590              	rightDuty:
 591 0000 00000000 		.space	4
 592              		.type	speed, %object
 593              		.size	speed, 4
 594              	speed:
 595 0004 00000000 		.space	4
 596              		.text
 597              	.Letext0:
 598              		.file 2 "c:\\program files (x86)\\cypress\\psoc creator\\4.2\\psoc creator\\import\\gnu\\arm\\5.4.
 599              		.file 3 "c:\\program files (x86)\\cypress\\psoc creator\\4.2\\psoc creator\\import\\gnu\\arm\\5.4.
 600              		.file 4 "Generated_Source\\PSoC5/cytypes.h"
 601              		.file 5 "Generated_Source\\PSoC5/core_cm3.h"
 602              		.file 6 "Generated_Source\\PSoC5/USBUART_1_cdc.h"
 603              		.file 7 "c:\\program files (x86)\\cypress\\psoc creator\\4.2\\psoc creator\\import\\gnu\\arm\\5.4.
 604              		.file 8 "Generated_Source\\PSoC5/PWM_leftmotor.h"
 605              		.file 9 "Generated_Source\\PSoC5/PWM_rightmotor.h"