ARM GAS  C:\Users\FRANCI~2\AppData\Local\Temp\ccAgjSzM.s 			page 1


   1              		.syntax unified
   2              		.cpu cortex-m3
   3              		.fpu softvfp
   4              		.eabi_attribute 20, 1
   5              		.eabi_attribute 21, 1
   6              		.eabi_attribute 23, 3
   7              		.eabi_attribute 24, 1
   8              		.eabi_attribute 25, 1
   9              		.eabi_attribute 26, 1
  10              		.eabi_attribute 30, 1
  11              		.eabi_attribute 34, 1
  12              		.eabi_attribute 18, 4
  13              		.thumb
  14              		.syntax unified
  15              		.file	"main.c"
  16              		.text
  17              	.Ltext0:
  18              		.cfi_sections	.debug_frame
  19              		.section	.text.eoc1,"ax",%progbits
  20              		.align	2
  21              		.global	eoc1
  22              		.thumb
  23              		.thumb_func
  24              		.type	eoc1, %function
  25              	eoc1:
  26              	.LFB64:
  27              		.file 1 "main.c"
   1:main.c        **** /* ========================================
   2:main.c        ****  *
   3:main.c        ****  * Copyright The University of Auckland, CS301 Group 15, 2022
   4:main.c        ****  * All Rights Reserved
   5:main.c        ****  * UNPUBLISHED, LICENSED SOFTWARE.
   6:main.c        ****  *
   7:main.c        ****  * CONFIDENTIAL AND PROPRIETARY INFORMATION
   8:main.c        ****  * WHICH IS THE PROPERTY OF The University of Auckland, CS301 Group 15.
   9:main.c        ****  *
  10:main.c        ****  * ========================================
  11:main.c        **** */
  12:main.c        **** #include "project.h"
  13:main.c        **** #include "functions.h"
  14:main.c        **** #include "algorithm.h"
  15:main.c        **** #include <stdio.h>
  16:main.c        **** #include <project.h>
  17:main.c        **** #include <string.h>
  18:main.c        **** 
  19:main.c        **** 
  20:main.c        **** int turnActionArray[500];
  21:main.c        **** 
  22:main.c        **** // for testing use only
  23:main.c        **** int testArray[14] = {3,3,0,1,2,1,1,0,1,2,0,0,2,1};
  24:main.c        **** int testArray2[21] = {1,2,0,1,1,2,2,1,1,2,2,1,1,3,2,2,0,2,1,1,1};
  25:main.c        **** int testArray3[25] ={2,1,1,2,0,3,0,1,1,2,2,1,0,2,1,1,3,2,2,0,2,1,0,1,0};
  26:main.c        **** 
  27:main.c        **** int leftFlag = 0;
  28:main.c        **** int rightFlag = 0;
  29:main.c        **** 
  30:main.c        **** // indicate completion of reading and storing values
ARM GAS  C:\Users\FRANCI~2\AppData\Local\Temp\ccAgjSzM.s 			page 2


  31:main.c        **** int flag=0;
  32:main.c        **** int flag2=0;
  33:main.c        **** int flag3=0;
  34:main.c        **** int flag4=0;
  35:main.c        **** int flag5=0;
  36:main.c        **** int flag6=0;
  37:main.c        **** 
  38:main.c        **** // variable to keep track number of ADC value reading counts
  39:main.c        **** int count1 = 0;
  40:main.c        **** int count2 = 0;
  41:main.c        **** int count3 = 0;
  42:main.c        **** int count4 = 0;
  43:main.c        **** int count5 = 0;
  44:main.c        **** int count6 = 0;
  45:main.c        **** 
  46:main.c        **** // array to store mV values
  47:main.c        **** int array[10] ={0};
  48:main.c        **** int array2[10] ={0};
  49:main.c        **** int array3[10] ={0};
  50:main.c        **** int array4[10] ={0};
  51:main.c        **** int array5[10] ={0};
  52:main.c        **** int array6[10] ={0};
  53:main.c        **** 
  54:main.c        **** int leftTurn = 0;   // 0  means no turns 
  55:main.c        **** int rightTurn = 0;
  56:main.c        **** int finishTurn = 0; // 0 means turn not finished
  57:main.c        **** 
  58:main.c        **** int front = 0;
  59:main.c        **** int left = 0;
  60:main.c        **** int right = 0;
  61:main.c        **** int far_left = 0;
  62:main.c        **** int far_right = 0;
  63:main.c        **** int back = 0;
  64:main.c        **** 
  65:main.c        **** enum States {left_turn, right_turn, straight, stop, straight_left_adjust, straight_right_adjust,lef
  66:main.c        **** 
  67:main.c        **** CY_ISR(eoc1){
  28              		.loc 1 67 0
  29              		.cfi_startproc
  30              		@ args = 0, pretend = 0, frame = 0
  31              		@ frame_needed = 0, uses_anonymous_args = 0
  32 0000 08B5     		push	{r3, lr}
  33              		.cfi_def_cfa_offset 8
  34              		.cfi_offset 3, -8
  35              		.cfi_offset 14, -4
  68:main.c        ****     
  69:main.c        ****     if(count1 < 9){
  36              		.loc 1 69 0
  37 0002 444B     		ldr	r3, .L15
  38 0004 1B68     		ldr	r3, [r3]
  39 0006 082B     		cmp	r3, #8
  40 0008 0CDC     		bgt	.L2
  41              	.LBB2:
  70:main.c        ****         int val = ADC_SAR_Seq_1_GetResult16(0);
  42              		.loc 1 70 0
  43 000a 0020     		movs	r0, #0
  44 000c FFF7FEFF 		bl	ADC_SAR_Seq_1_GetResult16
ARM GAS  C:\Users\FRANCI~2\AppData\Local\Temp\ccAgjSzM.s 			page 3


  45              	.LVL0:
  71:main.c        ****         int mVolts = ADC_SAR_Seq_1_CountsTo_mVolts(val);
  46              		.loc 1 71 0
  47 0010 FFF7FEFF 		bl	ADC_SAR_Seq_1_CountsTo_mVolts
  48              	.LVL1:
  72:main.c        ****         array[count1] = mVolts;
  49              		.loc 1 72 0
  50 0014 3F4A     		ldr	r2, .L15
  51 0016 1368     		ldr	r3, [r2]
  52 0018 02EB8301 		add	r1, r2, r3, lsl #2
  53 001c 4860     		str	r0, [r1, #4]
  73:main.c        ****         count1++;
  54              		.loc 1 73 0
  55 001e 0133     		adds	r3, r3, #1
  56 0020 1360     		str	r3, [r2]
  57              	.LBE2:
  58 0022 02E0     		b	.L3
  59              	.LVL2:
  60              	.L2:
  74:main.c        ****         
  75:main.c        ****     } else {
  76:main.c        ****         flag = 1;
  61              		.loc 1 76 0
  62 0024 0122     		movs	r2, #1
  63 0026 3B4B     		ldr	r3, .L15
  64 0028 DA62     		str	r2, [r3, #44]
  65              	.L3:
  77:main.c        ****     }
  78:main.c        ****     
  79:main.c        ****     if(count2 < 9){
  66              		.loc 1 79 0
  67 002a 3A4B     		ldr	r3, .L15
  68 002c 1B6B     		ldr	r3, [r3, #48]
  69 002e 082B     		cmp	r3, #8
  70 0030 0CDC     		bgt	.L4
  71              	.LBB3:
  80:main.c        ****         int val2 = ADC_SAR_Seq_1_GetResult16(1);
  72              		.loc 1 80 0
  73 0032 0120     		movs	r0, #1
  74 0034 FFF7FEFF 		bl	ADC_SAR_Seq_1_GetResult16
  75              	.LVL3:
  81:main.c        ****         int mVolts2 = ADC_SAR_Seq_1_CountsTo_mVolts(val2);
  76              		.loc 1 81 0
  77 0038 FFF7FEFF 		bl	ADC_SAR_Seq_1_CountsTo_mVolts
  78              	.LVL4:
  82:main.c        ****         array2[count2] = mVolts2;
  79              		.loc 1 82 0
  80 003c 354A     		ldr	r2, .L15
  81 003e 136B     		ldr	r3, [r2, #48]
  82 0040 02EB8301 		add	r1, r2, r3, lsl #2
  83 0044 4863     		str	r0, [r1, #52]
  83:main.c        ****         count2++;
  84              		.loc 1 83 0
  85 0046 0133     		adds	r3, r3, #1
  86 0048 1363     		str	r3, [r2, #48]
  87              	.LBE3:
  88 004a 02E0     		b	.L5
ARM GAS  C:\Users\FRANCI~2\AppData\Local\Temp\ccAgjSzM.s 			page 4


  89              	.LVL5:
  90              	.L4:
  84:main.c        ****         
  85:main.c        ****     } else{
  86:main.c        ****         flag2 = 1;
  91              		.loc 1 86 0
  92 004c 0122     		movs	r2, #1
  93 004e 314B     		ldr	r3, .L15
  94 0050 DA65     		str	r2, [r3, #92]
  95              	.L5:
  87:main.c        ****     }
  88:main.c        ****     
  89:main.c        ****     if(count3 < 9){
  96              		.loc 1 89 0
  97 0052 304B     		ldr	r3, .L15
  98 0054 1B6E     		ldr	r3, [r3, #96]
  99 0056 082B     		cmp	r3, #8
 100 0058 0CDC     		bgt	.L6
 101              	.LBB4:
  90:main.c        ****         int val3 = ADC_SAR_Seq_1_GetResult16(2);
 102              		.loc 1 90 0
 103 005a 0220     		movs	r0, #2
 104 005c FFF7FEFF 		bl	ADC_SAR_Seq_1_GetResult16
 105              	.LVL6:
  91:main.c        ****         int mVolts3 = ADC_SAR_Seq_1_CountsTo_mVolts(val3);
 106              		.loc 1 91 0
 107 0060 FFF7FEFF 		bl	ADC_SAR_Seq_1_CountsTo_mVolts
 108              	.LVL7:
  92:main.c        ****         array3[count3] = mVolts3;
 109              		.loc 1 92 0
 110 0064 2B4A     		ldr	r2, .L15
 111 0066 136E     		ldr	r3, [r2, #96]
 112 0068 02EB8301 		add	r1, r2, r3, lsl #2
 113 006c 4866     		str	r0, [r1, #100]
  93:main.c        ****         count3++;
 114              		.loc 1 93 0
 115 006e 0133     		adds	r3, r3, #1
 116 0070 1366     		str	r3, [r2, #96]
 117              	.LBE4:
 118 0072 03E0     		b	.L7
 119              	.LVL8:
 120              	.L6:
  94:main.c        ****         
  95:main.c        ****     } else{
  96:main.c        ****         flag3 = 1;
 121              		.loc 1 96 0
 122 0074 0122     		movs	r2, #1
 123 0076 274B     		ldr	r3, .L15
 124 0078 C3F88C20 		str	r2, [r3, #140]
 125              	.L7:
  97:main.c        ****     }
  98:main.c        ****     
  99:main.c        ****     if(count4 < 9){
 126              		.loc 1 99 0
 127 007c 254B     		ldr	r3, .L15
 128 007e D3F89030 		ldr	r3, [r3, #144]
 129 0082 082B     		cmp	r3, #8
ARM GAS  C:\Users\FRANCI~2\AppData\Local\Temp\ccAgjSzM.s 			page 5


 130 0084 0FDC     		bgt	.L8
 131              	.LBB5:
 100:main.c        ****         int val4 = ADC_SAR_Seq_1_GetResult16(3);
 132              		.loc 1 100 0
 133 0086 0320     		movs	r0, #3
 134 0088 FFF7FEFF 		bl	ADC_SAR_Seq_1_GetResult16
 135              	.LVL9:
 101:main.c        ****         int mVolts4 = ADC_SAR_Seq_1_CountsTo_mVolts(val4);
 136              		.loc 1 101 0
 137 008c FFF7FEFF 		bl	ADC_SAR_Seq_1_CountsTo_mVolts
 138              	.LVL10:
 102:main.c        ****         array4[count4] = mVolts4;
 139              		.loc 1 102 0
 140 0090 204A     		ldr	r2, .L15
 141 0092 D2F89030 		ldr	r3, [r2, #144]
 142 0096 02EB8301 		add	r1, r2, r3, lsl #2
 143 009a C1F89400 		str	r0, [r1, #148]
 103:main.c        ****         count4++;
 144              		.loc 1 103 0
 145 009e 0133     		adds	r3, r3, #1
 146 00a0 C2F89030 		str	r3, [r2, #144]
 147              	.LBE5:
 148 00a4 03E0     		b	.L9
 149              	.LVL11:
 150              	.L8:
 104:main.c        ****         
 105:main.c        ****     } else{
 106:main.c        ****         flag4 = 1;
 151              		.loc 1 106 0
 152 00a6 0122     		movs	r2, #1
 153 00a8 1A4B     		ldr	r3, .L15
 154 00aa C3F8BC20 		str	r2, [r3, #188]
 155              	.L9:
 107:main.c        ****     }
 108:main.c        ****     
 109:main.c        ****     if(count5 < 9){
 156              		.loc 1 109 0
 157 00ae 194B     		ldr	r3, .L15
 158 00b0 D3F8C030 		ldr	r3, [r3, #192]
 159 00b4 082B     		cmp	r3, #8
 160 00b6 0FDC     		bgt	.L10
 161              	.LBB6:
 110:main.c        ****         int val5 = ADC_SAR_Seq_1_GetResult16(4);
 162              		.loc 1 110 0
 163 00b8 0420     		movs	r0, #4
 164 00ba FFF7FEFF 		bl	ADC_SAR_Seq_1_GetResult16
 165              	.LVL12:
 111:main.c        ****         int mVolts5 = ADC_SAR_Seq_1_CountsTo_mVolts(val5);
 166              		.loc 1 111 0
 167 00be FFF7FEFF 		bl	ADC_SAR_Seq_1_CountsTo_mVolts
 168              	.LVL13:
 112:main.c        ****         array5[count5] = mVolts5;
 169              		.loc 1 112 0
 170 00c2 144A     		ldr	r2, .L15
 171 00c4 D2F8C030 		ldr	r3, [r2, #192]
 172 00c8 02EB8301 		add	r1, r2, r3, lsl #2
 173 00cc C1F8C400 		str	r0, [r1, #196]
ARM GAS  C:\Users\FRANCI~2\AppData\Local\Temp\ccAgjSzM.s 			page 6


 113:main.c        ****         count5++;
 174              		.loc 1 113 0
 175 00d0 0133     		adds	r3, r3, #1
 176 00d2 C2F8C030 		str	r3, [r2, #192]
 177              	.LBE6:
 178 00d6 03E0     		b	.L11
 179              	.LVL14:
 180              	.L10:
 114:main.c        ****         
 115:main.c        ****     } else{
 116:main.c        ****         flag5 = 1;
 181              		.loc 1 116 0
 182 00d8 0122     		movs	r2, #1
 183 00da 0E4B     		ldr	r3, .L15
 184 00dc C3F8EC20 		str	r2, [r3, #236]
 185              	.L11:
 117:main.c        ****     }
 118:main.c        ****     
 119:main.c        ****     if(count6 < 9){
 186              		.loc 1 119 0
 187 00e0 0C4B     		ldr	r3, .L15
 188 00e2 D3F8F030 		ldr	r3, [r3, #240]
 189 00e6 082B     		cmp	r3, #8
 190 00e8 0FDC     		bgt	.L12
 191              	.LBB7:
 120:main.c        ****         int val6 = ADC_SAR_Seq_1_GetResult16(5);
 192              		.loc 1 120 0
 193 00ea 0520     		movs	r0, #5
 194 00ec FFF7FEFF 		bl	ADC_SAR_Seq_1_GetResult16
 195              	.LVL15:
 121:main.c        ****         int mVolts6 = ADC_SAR_Seq_1_CountsTo_mVolts(val6);
 196              		.loc 1 121 0
 197 00f0 FFF7FEFF 		bl	ADC_SAR_Seq_1_CountsTo_mVolts
 198              	.LVL16:
 122:main.c        ****         array6[count6] = mVolts6;
 199              		.loc 1 122 0
 200 00f4 074A     		ldr	r2, .L15
 201 00f6 D2F8F030 		ldr	r3, [r2, #240]
 202 00fa 02EB8301 		add	r1, r2, r3, lsl #2
 203 00fe C1F8F400 		str	r0, [r1, #244]
 123:main.c        ****         count6++;
 204              		.loc 1 123 0
 205 0102 0133     		adds	r3, r3, #1
 206 0104 C2F8F030 		str	r3, [r2, #240]
 207              	.LBE7:
 208 0108 08BD     		pop	{r3, pc}
 209              	.LVL17:
 210              	.L12:
 124:main.c        ****         
 125:main.c        ****     } else{
 126:main.c        ****         flag6 = 1;
 211              		.loc 1 126 0
 212 010a 0122     		movs	r2, #1
 213 010c 014B     		ldr	r3, .L15
 214 010e C3F81C21 		str	r2, [r3, #284]
 215 0112 08BD     		pop	{r3, pc}
 216              	.L16:
ARM GAS  C:\Users\FRANCI~2\AppData\Local\Temp\ccAgjSzM.s 			page 7


 217              		.align	2
 218              	.L15:
 219 0114 00000000 		.word	.LANCHOR0
 220              		.cfi_endproc
 221              	.LFE64:
 222              		.size	eoc1, .-eoc1
 223              		.section	.text.main,"ax",%progbits
 224              		.align	2
 225              		.global	main
 226              		.thumb
 227              		.thumb_func
 228              		.type	main, %function
 229              	main:
 230              	.LFB65:
 127:main.c        ****     }
 128:main.c        **** }
 129:main.c        **** 
 130:main.c        **** 
 131:main.c        **** 
 132:main.c        **** int main(void) {   
 231              		.loc 1 132 0
 232              		.cfi_startproc
 233              		@ args = 0, pretend = 0, frame = 0
 234              		@ frame_needed = 0, uses_anonymous_args = 0
 235 0000 2DE9F041 		push	{r4, r5, r6, r7, r8, lr}
 236              		.cfi_def_cfa_offset 24
 237              		.cfi_offset 4, -24
 238              		.cfi_offset 5, -20
 239              		.cfi_offset 6, -16
 240              		.cfi_offset 7, -12
 241              		.cfi_offset 8, -8
 242              		.cfi_offset 14, -4
 243              	.LVL18:
 133:main.c        ****     
 134:main.c        ****     int currentActionIndex = 0;
 135:main.c        ****     isr_EOC_3_StartEx(eoc1);
 244              		.loc 1 135 0
 245 0004 BE48     		ldr	r0, .L73
 246 0006 FFF7FEFF 		bl	isr_EOC_3_StartEx
 247              	.LVL19:
 136:main.c        ****     
 137:main.c        ****     CyGlobalIntEnable; /* Enable global interrupts. */
 248              		.loc 1 137 0
 249              		.syntax unified
 250              	@ 137 "main.c" 1
 251 000a 62B6     		CPSIE   i
 252              	@ 0 "" 2
 138:main.c        **** 
 139:main.c        ****     USBUART_1_Start(0,USBUART_1_5V_OPERATION);
 253              		.loc 1 139 0
 254              		.thumb
 255              		.syntax unified
 256 000c 0121     		movs	r1, #1
 257 000e 0020     		movs	r0, #0
 258 0010 FFF7FEFF 		bl	USBUART_1_Start
 259              	.LVL20:
 140:main.c        ****     
ARM GAS  C:\Users\FRANCI~2\AppData\Local\Temp\ccAgjSzM.s 			page 8


 141:main.c        ****     ADC_SAR_Seq_1_Start();
 260              		.loc 1 141 0
 261 0014 FFF7FEFF 		bl	ADC_SAR_Seq_1_Start
 262              	.LVL21:
 142:main.c        ****     Timer_2_Start();
 263              		.loc 1 142 0
 264 0018 FFF7FEFF 		bl	Timer_2_Start
 265              	.LVL22:
 143:main.c        ****     findshortestPath();
 266              		.loc 1 143 0
 267 001c FFF7FEFF 		bl	findshortestPath
 268              	.LVL23:
 144:main.c        ****     
 145:main.c        ****     // turn on all LEDs
 146:main.c        ****     LED_1_Write(1);
 269              		.loc 1 146 0
 270 0020 0120     		movs	r0, #1
 271 0022 FFF7FEFF 		bl	LED_1_Write
 272              	.LVL24:
 147:main.c        ****     LED_2_Write(1);
 273              		.loc 1 147 0
 274 0026 0120     		movs	r0, #1
 275 0028 FFF7FEFF 		bl	LED_2_Write
 276              	.LVL25:
 148:main.c        ****     LED_3_Write(1);
 277              		.loc 1 148 0
 278 002c 0120     		movs	r0, #1
 279 002e FFF7FEFF 		bl	LED_3_Write
 280              	.LVL26:
 149:main.c        ****     
 150:main.c        **** 
 151:main.c        ****     // set initial FSM state to go straight
 152:main.c        ****     enum States FSM =straight;
 281              		.loc 1 152 0
 282 0032 0224     		movs	r4, #2
 134:main.c        ****     isr_EOC_3_StartEx(eoc1);
 283              		.loc 1 134 0
 284 0034 0025     		movs	r5, #0
 285              	.LVL27:
 286              	.L18:
 287              	.LBB8:
 153:main.c        **** 
 154:main.c        **** 
 155:main.c        ****     for(;;){   
 156:main.c        **** 
 157:main.c        ****         if(flag == 1){
 288              		.loc 1 157 0
 289 0036 B34B     		ldr	r3, .L73+4
 290 0038 DB6A     		ldr	r3, [r3, #44]
 291 003a 012B     		cmp	r3, #1
 292 003c 0FD1     		bne	.L20
 158:main.c        ****             flag = 0;
 293              		.loc 1 158 0
 294 003e B14E     		ldr	r6, .L73+4
 295 0040 0027     		movs	r7, #0
 296 0042 F762     		str	r7, [r6, #44]
 159:main.c        ****             front = findMaximum(array);    
ARM GAS  C:\Users\FRANCI~2\AppData\Local\Temp\ccAgjSzM.s 			page 9


 297              		.loc 1 159 0
 298 0044 06F10408 		add	r8, r6, #4
 299 0048 4046     		mov	r0, r8
 300 004a FFF7FEFF 		bl	findMaximum
 301              	.LVL28:
 302 004e C6F82001 		str	r0, [r6, #288]
 160:main.c        ****             count1 = 0;
 303              		.loc 1 160 0
 304 0052 3760     		str	r7, [r6]
 161:main.c        ****             memset(array,0,sizeof(array));
 305              		.loc 1 161 0
 306 0054 2822     		movs	r2, #40
 307 0056 3946     		mov	r1, r7
 308 0058 4046     		mov	r0, r8
 309 005a FFF7FEFF 		bl	memset
 310              	.LVL29:
 311              	.L20:
 162:main.c        ****         }
 163:main.c        ****         
 164:main.c        ****         if(flag2 == 1){
 312              		.loc 1 164 0
 313 005e A94B     		ldr	r3, .L73+4
 314 0060 DB6D     		ldr	r3, [r3, #92]
 315 0062 012B     		cmp	r3, #1
 316 0064 0FD1     		bne	.L21
 165:main.c        ****             flag2 = 0;
 317              		.loc 1 165 0
 318 0066 A74E     		ldr	r6, .L73+4
 319 0068 0027     		movs	r7, #0
 320 006a F765     		str	r7, [r6, #92]
 166:main.c        ****             left = findMaximum(array2);
 321              		.loc 1 166 0
 322 006c 06F13408 		add	r8, r6, #52
 323 0070 4046     		mov	r0, r8
 324 0072 FFF7FEFF 		bl	findMaximum
 325              	.LVL30:
 326 0076 C6F82401 		str	r0, [r6, #292]
 167:main.c        ****             count2 = 0;
 327              		.loc 1 167 0
 328 007a 3763     		str	r7, [r6, #48]
 168:main.c        ****             memset(array2,0,sizeof(array2));
 329              		.loc 1 168 0
 330 007c 2822     		movs	r2, #40
 331 007e 3946     		mov	r1, r7
 332 0080 4046     		mov	r0, r8
 333 0082 FFF7FEFF 		bl	memset
 334              	.LVL31:
 335              	.L21:
 169:main.c        ****         }
 170:main.c        ****         
 171:main.c        ****         if(flag3 == 1){
 336              		.loc 1 171 0
 337 0086 9F4B     		ldr	r3, .L73+4
 338 0088 D3F88C30 		ldr	r3, [r3, #140]
 339 008c 012B     		cmp	r3, #1
 340 008e 10D1     		bne	.L22
 172:main.c        ****             flag3 = 0;
ARM GAS  C:\Users\FRANCI~2\AppData\Local\Temp\ccAgjSzM.s 			page 10


 341              		.loc 1 172 0
 342 0090 9C4E     		ldr	r6, .L73+4
 343 0092 0027     		movs	r7, #0
 344 0094 C6F88C70 		str	r7, [r6, #140]
 173:main.c        ****             right = findMaximum(array3);
 345              		.loc 1 173 0
 346 0098 06F16408 		add	r8, r6, #100
 347 009c 4046     		mov	r0, r8
 348 009e FFF7FEFF 		bl	findMaximum
 349              	.LVL32:
 350 00a2 C6F82801 		str	r0, [r6, #296]
 174:main.c        ****             count3 = 0;
 351              		.loc 1 174 0
 352 00a6 3766     		str	r7, [r6, #96]
 175:main.c        ****             memset(array3,0,sizeof(array3));
 353              		.loc 1 175 0
 354 00a8 2822     		movs	r2, #40
 355 00aa 3946     		mov	r1, r7
 356 00ac 4046     		mov	r0, r8
 357 00ae FFF7FEFF 		bl	memset
 358              	.LVL33:
 359              	.L22:
 176:main.c        ****         }    
 177:main.c        ****         
 178:main.c        ****         if(flag4 == 1){
 360              		.loc 1 178 0
 361 00b2 944B     		ldr	r3, .L73+4
 362 00b4 D3F8BC30 		ldr	r3, [r3, #188]
 363 00b8 012B     		cmp	r3, #1
 364 00ba 11D1     		bne	.L23
 179:main.c        ****             flag4 = 0;
 365              		.loc 1 179 0
 366 00bc 914E     		ldr	r6, .L73+4
 367 00be 0027     		movs	r7, #0
 368 00c0 C6F8BC70 		str	r7, [r6, #188]
 180:main.c        ****             far_left = findMaximum(array4);
 369              		.loc 1 180 0
 370 00c4 06F19408 		add	r8, r6, #148
 371 00c8 4046     		mov	r0, r8
 372 00ca FFF7FEFF 		bl	findMaximum
 373              	.LVL34:
 374 00ce C6F82C01 		str	r0, [r6, #300]
 181:main.c        ****             count4 = 0;
 375              		.loc 1 181 0
 376 00d2 C6F89070 		str	r7, [r6, #144]
 182:main.c        ****             memset(array4,0,sizeof(array4));
 377              		.loc 1 182 0
 378 00d6 2822     		movs	r2, #40
 379 00d8 3946     		mov	r1, r7
 380 00da 4046     		mov	r0, r8
 381 00dc FFF7FEFF 		bl	memset
 382              	.LVL35:
 383              	.L23:
 183:main.c        ****         }
 184:main.c        ****         
 185:main.c        ****         if(flag5 == 1){
 384              		.loc 1 185 0
ARM GAS  C:\Users\FRANCI~2\AppData\Local\Temp\ccAgjSzM.s 			page 11


 385 00e0 884B     		ldr	r3, .L73+4
 386 00e2 D3F8EC30 		ldr	r3, [r3, #236]
 387 00e6 012B     		cmp	r3, #1
 388 00e8 11D1     		bne	.L24
 186:main.c        ****             flag5 = 0;
 389              		.loc 1 186 0
 390 00ea 864E     		ldr	r6, .L73+4
 391 00ec 0027     		movs	r7, #0
 392 00ee C6F8EC70 		str	r7, [r6, #236]
 187:main.c        ****             far_right = findMaximum(array5);
 393              		.loc 1 187 0
 394 00f2 06F1C408 		add	r8, r6, #196
 395 00f6 4046     		mov	r0, r8
 396 00f8 FFF7FEFF 		bl	findMaximum
 397              	.LVL36:
 398 00fc C6F83001 		str	r0, [r6, #304]
 188:main.c        ****             count5 = 0;
 399              		.loc 1 188 0
 400 0100 C6F8C070 		str	r7, [r6, #192]
 189:main.c        ****             memset(array5,0,sizeof(array5));
 401              		.loc 1 189 0
 402 0104 2822     		movs	r2, #40
 403 0106 3946     		mov	r1, r7
 404 0108 4046     		mov	r0, r8
 405 010a FFF7FEFF 		bl	memset
 406              	.LVL37:
 407              	.L24:
 190:main.c        ****         }
 191:main.c        ****         
 192:main.c        ****         if(flag6 == 1){
 408              		.loc 1 192 0
 409 010e 7D4B     		ldr	r3, .L73+4
 410 0110 D3F81C31 		ldr	r3, [r3, #284]
 411 0114 012B     		cmp	r3, #1
 412 0116 11D1     		bne	.L25
 193:main.c        ****             flag6 = 0;
 413              		.loc 1 193 0
 414 0118 7A4E     		ldr	r6, .L73+4
 415 011a 0027     		movs	r7, #0
 416 011c C6F81C71 		str	r7, [r6, #284]
 194:main.c        ****             back = findMaximum(array6);
 417              		.loc 1 194 0
 418 0120 06F1F408 		add	r8, r6, #244
 419 0124 4046     		mov	r0, r8
 420 0126 FFF7FEFF 		bl	findMaximum
 421              	.LVL38:
 422 012a C6F83401 		str	r0, [r6, #308]
 195:main.c        ****             count6 = 0;
 423              		.loc 1 195 0
 424 012e C6F8F070 		str	r7, [r6, #240]
 196:main.c        ****             memset(array6,0,sizeof(array6));
 425              		.loc 1 196 0
 426 0132 2822     		movs	r2, #40
 427 0134 3946     		mov	r1, r7
 428 0136 4046     		mov	r0, r8
 429 0138 FFF7FEFF 		bl	memset
 430              	.LVL39:
ARM GAS  C:\Users\FRANCI~2\AppData\Local\Temp\ccAgjSzM.s 			page 12


 431              	.L25:
 197:main.c        ****         }
 198:main.c        **** 
 199:main.c        ****         
 200:main.c        ****         int cmp_val = 500;
 201:main.c        ****         int currentTurnAction = turnActionArray[currentActionIndex];
 432              		.loc 1 201 0
 433 013c 724B     		ldr	r3, .L73+8
 434 013e 53F82510 		ldr	r1, [r3, r5, lsl #2]
 435              	.LVL40:
 202:main.c        ****         
 203:main.c        **** 
 204:main.c        ****         if ((far_left > cmp_val)&&(front > cmp_val)&&(far_right > cmp_val)&&(left > cmp_val)&&(righ
 436              		.loc 1 204 0
 437 0142 704B     		ldr	r3, .L73+4
 438 0144 D3F82C31 		ldr	r3, [r3, #300]
 439 0148 B3F5FA7F 		cmp	r3, #500
 440 014c 20DD     		ble	.L26
 441              		.loc 1 204 0 is_stmt 0 discriminator 1
 442 014e 6D4A     		ldr	r2, .L73+4
 443 0150 D2F82021 		ldr	r2, [r2, #288]
 444 0154 B2F5FA7F 		cmp	r2, #500
 445 0158 1ADD     		ble	.L26
 446              		.loc 1 204 0 discriminator 2
 447 015a 6A4A     		ldr	r2, .L73+4
 448 015c D2F83021 		ldr	r2, [r2, #304]
 449 0160 B2F5FA7F 		cmp	r2, #500
 450 0164 14DD     		ble	.L26
 451              		.loc 1 204 0 discriminator 3
 452 0166 674A     		ldr	r2, .L73+4
 453 0168 D2F82421 		ldr	r2, [r2, #292]
 454 016c B2F5FA7F 		cmp	r2, #500
 455 0170 0EDD     		ble	.L26
 456              		.loc 1 204 0 discriminator 4
 457 0172 644A     		ldr	r2, .L73+4
 458 0174 D2F82821 		ldr	r2, [r2, #296]
 459 0178 B2F5FA7F 		cmp	r2, #500
 460 017c 08DD     		ble	.L26
 205:main.c        ****             if((FSM != right_turn)&&(FSM != left_turn)){
 461              		.loc 1 205 0 is_stmt 1
 462 017e 012C     		cmp	r4, #1
 463 0180 06D9     		bls	.L26
 206:main.c        ****                 if((currentTurnAction == 3)&&(FSM != left_turn)){
 464              		.loc 1 206 0
 465 0182 0329     		cmp	r1, #3
 466 0184 04D1     		bne	.L26
 467              		.loc 1 206 0 is_stmt 0 discriminator 1
 468 0186 1CB1     		cbz	r4, .L26
 207:main.c        ****                     rightTurn = 2;
 469              		.loc 1 207 0 is_stmt 1
 470 0188 0220     		movs	r0, #2
 471 018a 5E4A     		ldr	r2, .L73+4
 472 018c C2F83801 		str	r0, [r2, #312]
 473              	.L26:
 208:main.c        ****                 }
 209:main.c        ****             }
 210:main.c        ****         }
ARM GAS  C:\Users\FRANCI~2\AppData\Local\Temp\ccAgjSzM.s 			page 13


 211:main.c        ****         
 212:main.c        ****         
 213:main.c        ****         if ((far_left < cmp_val)&&(front > cmp_val)&&(far_right > cmp_val)) {
 474              		.loc 1 213 0
 475 0190 B3F5FA7F 		cmp	r3, #500
 476 0194 25DA     		bge	.L27
 477              		.loc 1 213 0 is_stmt 0 discriminator 1
 478 0196 5B4A     		ldr	r2, .L73+4
 479 0198 D2F82021 		ldr	r2, [r2, #288]
 480 019c B2F5FA7F 		cmp	r2, #500
 481 01a0 1FDD     		ble	.L27
 482              		.loc 1 213 0 discriminator 2
 483 01a2 584A     		ldr	r2, .L73+4
 484 01a4 D2F83021 		ldr	r2, [r2, #304]
 485 01a8 B2F5FA7F 		cmp	r2, #500
 486 01ac 19DD     		ble	.L27
 214:main.c        ****           if(FSM != right_turn){
 487              		.loc 1 214 0 is_stmt 1
 488 01ae 012C     		cmp	r4, #1
 489 01b0 00F07681 		beq	.L28
 215:main.c        ****                 if(currentTurnAction == 1){
 490              		.loc 1 215 0
 491 01b4 0129     		cmp	r1, #1
 492 01b6 03D1     		bne	.L29
 216:main.c        ****                     leftTurn = 1;
 493              		.loc 1 216 0
 494 01b8 524A     		ldr	r2, .L73+4
 495 01ba C2F83C11 		str	r1, [r2, #316]
 496 01be 6FE1     		b	.L28
 497              	.L29:
 217:main.c        ****                 }else if(currentTurnAction == 0){
 498              		.loc 1 217 0
 499 01c0 21B9     		cbnz	r1, .L30
 218:main.c        ****                      leftTurn = 10;
 500              		.loc 1 218 0
 501 01c2 0A21     		movs	r1, #10
 502              	.LVL41:
 503 01c4 4F4A     		ldr	r2, .L73+4
 504 01c6 C2F83C11 		str	r1, [r2, #316]
 505 01ca 69E1     		b	.L28
 506              	.LVL42:
 507              	.L30:
 219:main.c        ****                  }else if((currentTurnAction == 3)&&(FSM != left_turn)){
 508              		.loc 1 219 0
 509 01cc 0329     		cmp	r1, #3
 510 01ce 40F06781 		bne	.L28
 511              		.loc 1 219 0 is_stmt 0 discriminator 1
 512 01d2 002C     		cmp	r4, #0
 513 01d4 00F06481 		beq	.L28
 220:main.c        ****                     rightTurn = 2;
 514              		.loc 1 220 0 is_stmt 1
 515 01d8 0221     		movs	r1, #2
 516              	.LVL43:
 517 01da 4A4A     		ldr	r2, .L73+4
 518 01dc C2F83811 		str	r1, [r2, #312]
 519 01e0 5EE1     		b	.L28
 520              	.LVL44:
ARM GAS  C:\Users\FRANCI~2\AppData\Local\Temp\ccAgjSzM.s 			page 14


 521              	.L27:
 221:main.c        ****                 }             
 222:main.c        ****           }
 223:main.c        ****           
 224:main.c        ****         }
 225:main.c        ****         
 226:main.c        ****         else if((far_left < cmp_val)&&(front < cmp_val)&&(far_right > cmp_val)){
 522              		.loc 1 226 0
 523 01e2 B3F5FA7F 		cmp	r3, #500
 524 01e6 26DA     		bge	.L31
 525              		.loc 1 226 0 is_stmt 0 discriminator 1
 526 01e8 464A     		ldr	r2, .L73+4
 527 01ea D2F82021 		ldr	r2, [r2, #288]
 528 01ee B2F5FA7F 		cmp	r2, #500
 529 01f2 20DA     		bge	.L31
 530              		.loc 1 226 0 discriminator 2
 531 01f4 434A     		ldr	r2, .L73+4
 532 01f6 D2F83021 		ldr	r2, [r2, #304]
 533 01fa B2F5FA7F 		cmp	r2, #500
 534 01fe 1ADD     		ble	.L31
 227:main.c        ****             if(FSM != right_turn){
 535              		.loc 1 227 0 is_stmt 1
 536 0200 012C     		cmp	r4, #1
 537 0202 00F04D81 		beq	.L28
 228:main.c        ****                 if(currentTurnAction == 1){
 538              		.loc 1 228 0
 539 0206 0129     		cmp	r1, #1
 540 0208 04D1     		bne	.L32
 229:main.c        ****                     leftTurn = 11;
 541              		.loc 1 229 0
 542 020a 0B21     		movs	r1, #11
 543              	.LVL45:
 544 020c 3D4A     		ldr	r2, .L73+4
 545 020e C2F83C11 		str	r1, [r2, #316]
 546 0212 45E1     		b	.L28
 547              	.LVL46:
 548              	.L32:
 230:main.c        ****                 }else if(currentTurnAction == 0){
 549              		.loc 1 230 0
 550 0214 21B9     		cbnz	r1, .L33
 231:main.c        ****                     leftTurn = 10;
 551              		.loc 1 231 0
 552 0216 0A21     		movs	r1, #10
 553              	.LVL47:
 554 0218 3A4A     		ldr	r2, .L73+4
 555 021a C2F83C11 		str	r1, [r2, #316]
 556 021e 3FE1     		b	.L28
 557              	.LVL48:
 558              	.L33:
 232:main.c        ****                 }else if((currentTurnAction == 3)&&(FSM != left_turn)){
 559              		.loc 1 232 0
 560 0220 0329     		cmp	r1, #3
 561 0222 40F03D81 		bne	.L28
 562              		.loc 1 232 0 is_stmt 0 discriminator 1
 563 0226 002C     		cmp	r4, #0
 564 0228 00F03A81 		beq	.L28
 233:main.c        ****                         rightTurn = 22;
ARM GAS  C:\Users\FRANCI~2\AppData\Local\Temp\ccAgjSzM.s 			page 15


 565              		.loc 1 233 0 is_stmt 1
 566 022c 1621     		movs	r1, #22
 567              	.LVL49:
 568 022e 354A     		ldr	r2, .L73+4
 569 0230 C2F83811 		str	r1, [r2, #312]
 570 0234 34E1     		b	.L28
 571              	.LVL50:
 572              	.L31:
 234:main.c        ****                 }             
 235:main.c        ****             }   
 236:main.c        ****         }
 237:main.c        **** 
 238:main.c        ****         else if ((far_right < cmp_val)&&(front > cmp_val)&&(far_left > cmp_val)) {  
 573              		.loc 1 238 0
 574 0236 334A     		ldr	r2, .L73+4
 575 0238 D2F83021 		ldr	r2, [r2, #304]
 576 023c B2F5FA7F 		cmp	r2, #500
 577 0240 22DA     		bge	.L34
 578              		.loc 1 238 0 is_stmt 0 discriminator 1
 579 0242 3048     		ldr	r0, .L73+4
 580 0244 D0F82001 		ldr	r0, [r0, #288]
 581 0248 B0F5FA7F 		cmp	r0, #500
 582 024c 1CDD     		ble	.L34
 583              		.loc 1 238 0 discriminator 2
 584 024e B3F5FA7F 		cmp	r3, #500
 585 0252 19DD     		ble	.L34
 239:main.c        ****             if(FSM != left_turn){
 586              		.loc 1 239 0 is_stmt 1
 587 0254 002C     		cmp	r4, #0
 588 0256 00F02381 		beq	.L28
 240:main.c        ****                 if(currentTurnAction == 2){
 589              		.loc 1 240 0
 590 025a 0229     		cmp	r1, #2
 591 025c 03D1     		bne	.L35
 241:main.c        ****                     rightTurn = 2;
 592              		.loc 1 241 0
 593 025e 294A     		ldr	r2, .L73+4
 594 0260 C2F83811 		str	r1, [r2, #312]
 595 0264 1CE1     		b	.L28
 596              	.L35:
 242:main.c        ****                 }else if(currentTurnAction == 0){
 597              		.loc 1 242 0
 598 0266 21B9     		cbnz	r1, .L36
 243:main.c        ****                      rightTurn = 20;
 599              		.loc 1 243 0
 600 0268 1421     		movs	r1, #20
 601              	.LVL51:
 602 026a 264A     		ldr	r2, .L73+4
 603 026c C2F83811 		str	r1, [r2, #312]
 604 0270 16E1     		b	.L28
 605              	.LVL52:
 606              	.L36:
 244:main.c        ****                  }else if((currentTurnAction == 3)&&(FSM != right_turn)){
 607              		.loc 1 244 0
 608 0272 0329     		cmp	r1, #3
 609 0274 40F01481 		bne	.L28
 610              		.loc 1 244 0 is_stmt 0 discriminator 1
ARM GAS  C:\Users\FRANCI~2\AppData\Local\Temp\ccAgjSzM.s 			page 16


 611 0278 012C     		cmp	r4, #1
 612 027a 00F01181 		beq	.L28
 245:main.c        ****                     leftTurn = 1;
 613              		.loc 1 245 0 is_stmt 1
 614 027e 0121     		movs	r1, #1
 615              	.LVL53:
 616 0280 204A     		ldr	r2, .L73+4
 617 0282 C2F83C11 		str	r1, [r2, #316]
 618 0286 0BE1     		b	.L28
 619              	.LVL54:
 620              	.L34:
 246:main.c        ****                 }    
 247:main.c        ****             }
 248:main.c        ****         }
 249:main.c        ****         
 250:main.c        ****         else if ((far_right < cmp_val)&&(front < cmp_val)&&(far_left > cmp_val)) {  
 621              		.loc 1 250 0
 622 0288 B2F5FA7F 		cmp	r2, #500
 623 028c 23DA     		bge	.L37
 624              		.loc 1 250 0 is_stmt 0 discriminator 1
 625 028e 1D48     		ldr	r0, .L73+4
 626 0290 D0F82001 		ldr	r0, [r0, #288]
 627 0294 B0F5FA7F 		cmp	r0, #500
 628 0298 1DDA     		bge	.L37
 629              		.loc 1 250 0 discriminator 2
 630 029a B3F5FA7F 		cmp	r3, #500
 631 029e 1ADD     		ble	.L37
 251:main.c        ****             if(FSM != left_turn){
 632              		.loc 1 251 0 is_stmt 1
 633 02a0 002C     		cmp	r4, #0
 634 02a2 00F0FD80 		beq	.L28
 252:main.c        ****                 if(currentTurnAction == 2){
 635              		.loc 1 252 0
 636 02a6 0229     		cmp	r1, #2
 637 02a8 04D1     		bne	.L38
 253:main.c        ****                     rightTurn = 22;
 638              		.loc 1 253 0
 639 02aa 1621     		movs	r1, #22
 640              	.LVL55:
 641 02ac 154A     		ldr	r2, .L73+4
 642 02ae C2F83811 		str	r1, [r2, #312]
 643 02b2 F5E0     		b	.L28
 644              	.LVL56:
 645              	.L38:
 254:main.c        ****                 }else if(currentTurnAction == 0){
 646              		.loc 1 254 0
 647 02b4 21B9     		cbnz	r1, .L39
 255:main.c        ****                      rightTurn = 20;
 648              		.loc 1 255 0
 649 02b6 1421     		movs	r1, #20
 650              	.LVL57:
 651 02b8 124A     		ldr	r2, .L73+4
 652 02ba C2F83811 		str	r1, [r2, #312]
 653 02be EFE0     		b	.L28
 654              	.LVL58:
 655              	.L39:
 256:main.c        ****                  }else if((currentTurnAction == 3)&&(FSM != right_turn)){
ARM GAS  C:\Users\FRANCI~2\AppData\Local\Temp\ccAgjSzM.s 			page 17


 656              		.loc 1 256 0
 657 02c0 0329     		cmp	r1, #3
 658 02c2 40F0ED80 		bne	.L28
 659              		.loc 1 256 0 is_stmt 0 discriminator 1
 660 02c6 012C     		cmp	r4, #1
 661 02c8 00F0EA80 		beq	.L28
 257:main.c        ****                     leftTurn = 11;
 662              		.loc 1 257 0 is_stmt 1
 663 02cc 0B21     		movs	r1, #11
 664              	.LVL59:
 665 02ce 0D4A     		ldr	r2, .L73+4
 666 02d0 C2F83C11 		str	r1, [r2, #316]
 667 02d4 E4E0     		b	.L28
 668              	.LVL60:
 669              	.L37:
 258:main.c        ****                                        
 259:main.c        ****                 }       
 260:main.c        ****             }
 261:main.c        ****         }
 262:main.c        ****         
 263:main.c        **** 
 264:main.c        ****         //for intersection when both leftturn and rightturn avaliable
 265:main.c        ****         else if((far_left < cmp_val)&&(front > cmp_val)&&(far_right < cmp_val)){
 670              		.loc 1 265 0
 671 02d6 B3F5FA7F 		cmp	r3, #500
 672 02da 2DDA     		bge	.L40
 673              		.loc 1 265 0 is_stmt 0 discriminator 1
 674 02dc 0948     		ldr	r0, .L73+4
 675 02de D0F82001 		ldr	r0, [r0, #288]
 676 02e2 B0F5FA7F 		cmp	r0, #500
 677 02e6 27DD     		ble	.L40
 678              		.loc 1 265 0 discriminator 2
 679 02e8 B2F5FA7F 		cmp	r2, #500
 680 02ec 24DA     		bge	.L40
 266:main.c        ****             if(FSM != right_turn){
 681              		.loc 1 266 0 is_stmt 1
 682 02ee 012C     		cmp	r4, #1
 683 02f0 11D0     		beq	.L41
 267:main.c        ****                 if(currentTurnAction == 1){
 684              		.loc 1 267 0
 685 02f2 0129     		cmp	r1, #1
 686 02f4 0AD1     		bne	.L42
 268:main.c        ****                     leftTurn = 1;
 687              		.loc 1 268 0
 688 02f6 0120     		movs	r0, #1
 689 02f8 024A     		ldr	r2, .L73+4
 690 02fa C2F83C01 		str	r0, [r2, #316]
 691 02fe 0AE0     		b	.L41
 692              	.L74:
 693              		.align	2
 694              	.L73:
 695 0300 00000000 		.word	eoc1
 696 0304 00000000 		.word	.LANCHOR0
 697 0308 00000000 		.word	turnActionArray
 698              	.L42:
 269:main.c        ****                 }else if(currentTurnAction == 0){
 699              		.loc 1 269 0
ARM GAS  C:\Users\FRANCI~2\AppData\Local\Temp\ccAgjSzM.s 			page 18


 700 030c 19B9     		cbnz	r1, .L41
 270:main.c        ****                      leftTurn = 10;
 701              		.loc 1 270 0
 702 030e 0A20     		movs	r0, #10
 703 0310 B04A     		ldr	r2, .L75
 704 0312 C2F83C01 		str	r0, [r2, #316]
 705              	.L41:
 271:main.c        ****                  }             
 272:main.c        ****              }if(FSM != left_turn){
 706              		.loc 1 272 0
 707 0316 002C     		cmp	r4, #0
 708 0318 00F0C280 		beq	.L28
 273:main.c        ****                 if(currentTurnAction == 2){
 709              		.loc 1 273 0
 710 031c 0229     		cmp	r1, #2
 711 031e 03D1     		bne	.L43
 274:main.c        ****                     rightTurn = 2;
 712              		.loc 1 274 0
 713 0320 AC4A     		ldr	r2, .L75
 714 0322 C2F83811 		str	r1, [r2, #312]
 715 0326 BBE0     		b	.L28
 716              	.L43:
 275:main.c        ****                 }else if(currentTurnAction == 0){
 717              		.loc 1 275 0
 718 0328 0029     		cmp	r1, #0
 719 032a 40F0B980 		bne	.L28
 276:main.c        ****                      rightTurn = 20;
 720              		.loc 1 276 0
 721 032e 1421     		movs	r1, #20
 722              	.LVL61:
 723 0330 A84A     		ldr	r2, .L75
 724 0332 C2F83811 		str	r1, [r2, #312]
 725 0336 B3E0     		b	.L28
 726              	.LVL62:
 727              	.L40:
 277:main.c        ****                  }    
 278:main.c        ****             } 
 279:main.c        ****         }
 280:main.c        ****         
 281:main.c        ****         //for intersection when  leftturn , rightturn and straight avaliable 
 282:main.c        ****         else if ((far_left < cmp_val)&&(front < cmp_val)&&(far_right < cmp_val)) {  
 728              		.loc 1 282 0
 729 0338 B3F5FA7F 		cmp	r3, #500
 730 033c 27DA     		bge	.L44
 731              		.loc 1 282 0 is_stmt 0 discriminator 1
 732 033e A548     		ldr	r0, .L75
 733 0340 D0F82001 		ldr	r0, [r0, #288]
 734 0344 B0F5FA7F 		cmp	r0, #500
 735 0348 21DA     		bge	.L44
 736              		.loc 1 282 0 discriminator 2
 737 034a B2F5FA7F 		cmp	r2, #500
 738 034e 1EDA     		bge	.L44
 283:main.c        ****             if(FSM != left_turn){
 739              		.loc 1 283 0 is_stmt 1
 740 0350 5CB1     		cbz	r4, .L45
 284:main.c        ****                 if(currentTurnAction == 2){
 741              		.loc 1 284 0
ARM GAS  C:\Users\FRANCI~2\AppData\Local\Temp\ccAgjSzM.s 			page 19


 742 0352 0229     		cmp	r1, #2
 743 0354 04D1     		bne	.L46
 285:main.c        ****                     rightTurn = 22;
 744              		.loc 1 285 0
 745 0356 1620     		movs	r0, #22
 746 0358 9E4A     		ldr	r2, .L75
 747 035a C2F83801 		str	r0, [r2, #312]
 748 035e 04E0     		b	.L45
 749              	.L46:
 286:main.c        ****                 }else if(currentTurnAction == 0){
 750              		.loc 1 286 0
 751 0360 19B9     		cbnz	r1, .L45
 287:main.c        ****                      rightTurn = 20;
 752              		.loc 1 287 0
 753 0362 1420     		movs	r0, #20
 754 0364 9B4A     		ldr	r2, .L75
 755 0366 C2F83801 		str	r0, [r2, #312]
 756              	.L45:
 288:main.c        ****                 }    
 289:main.c        ****             }
 290:main.c        ****             if(FSM != right_turn){
 757              		.loc 1 290 0
 758 036a 012C     		cmp	r4, #1
 759 036c 00F09880 		beq	.L28
 291:main.c        ****                 if(currentTurnAction == 1){
 760              		.loc 1 291 0
 761 0370 0129     		cmp	r1, #1
 762 0372 04D1     		bne	.L47
 292:main.c        ****                     leftTurn = 11;
 763              		.loc 1 292 0
 764 0374 0B21     		movs	r1, #11
 765              	.LVL63:
 766 0376 974A     		ldr	r2, .L75
 767 0378 C2F83C11 		str	r1, [r2, #316]
 768 037c 90E0     		b	.L28
 769              	.LVL64:
 770              	.L47:
 293:main.c        ****                     
 294:main.c        ****                 }else if(currentTurnAction == 0){
 771              		.loc 1 294 0
 772 037e 0029     		cmp	r1, #0
 773 0380 40F08E80 		bne	.L28
 295:main.c        ****                     leftTurn = 10;
 774              		.loc 1 295 0
 775 0384 0A21     		movs	r1, #10
 776              	.LVL65:
 777 0386 934A     		ldr	r2, .L75
 778 0388 C2F83C11 		str	r1, [r2, #316]
 779 038c 88E0     		b	.L28
 780              	.LVL66:
 781              	.L44:
 296:main.c        ****                 }            
 297:main.c        ****             }
 298:main.c        ****         }
 299:main.c        ****         
 300:main.c        ****         
 301:main.c        ****         else if ((left < cmp_val) && (right < cmp_val)) {
ARM GAS  C:\Users\FRANCI~2\AppData\Local\Temp\ccAgjSzM.s 			page 20


 782              		.loc 1 301 0
 783 038e 914A     		ldr	r2, .L75
 784 0390 D2F82421 		ldr	r2, [r2, #292]
 785 0394 B2F5FA7F 		cmp	r2, #500
 786 0398 45DA     		bge	.L48
 787              		.loc 1 301 0 is_stmt 0 discriminator 1
 788 039a 8E49     		ldr	r1, .L75
 789              	.LVL67:
 790 039c D1F82811 		ldr	r1, [r1, #296]
 791 03a0 B1F5FA7F 		cmp	r1, #500
 792 03a4 3FDA     		bge	.L48
 302:main.c        ****             //rightTurn = 0;
 303:main.c        ****             
 304:main.c        ****             if((FSM  == right_turn)&&(rightTurn ==2)&& (front<cmp_val)){
 793              		.loc 1 304 0 is_stmt 1
 794 03a6 012C     		cmp	r4, #1
 795 03a8 14D1     		bne	.L49
 796              		.loc 1 304 0 is_stmt 0 discriminator 1
 797 03aa 8A4A     		ldr	r2, .L75
 798 03ac D2F83821 		ldr	r2, [r2, #312]
 799 03b0 022A     		cmp	r2, #2
 800 03b2 0FD1     		bne	.L49
 801              		.loc 1 304 0 discriminator 2
 802 03b4 874A     		ldr	r2, .L75
 803 03b6 D2F82021 		ldr	r2, [r2, #288]
 804 03ba B2F5FA7F 		cmp	r2, #500
 805 03be 09DA     		bge	.L49
 305:main.c        ****                 
 306:main.c        ****                 rightTurn = 0;
 806              		.loc 1 306 0 is_stmt 1
 807 03c0 844A     		ldr	r2, .L75
 808 03c2 0021     		movs	r1, #0
 809 03c4 C2F83811 		str	r1, [r2, #312]
 307:main.c        ****                 currentActionIndex++;
 810              		.loc 1 307 0
 811 03c8 0135     		adds	r5, r5, #1
 812              	.LVL68:
 308:main.c        ****                 //LED_2_Write(~LED_2_Read());
 309:main.c        ****                 FSM = straight; // go straight only
 310:main.c        ****                 leftFlag =0;
 813              		.loc 1 310 0
 814 03ca C2F84011 		str	r1, [r2, #320]
 311:main.c        ****                 rightFlag =0;
 815              		.loc 1 311 0
 816 03ce C2F84411 		str	r1, [r2, #324]
 309:main.c        ****                 leftFlag =0;
 817              		.loc 1 309 0
 818 03d2 0224     		movs	r4, #2
 819              	.LVL69:
 820              	.L49:
 312:main.c        ****             }
 313:main.c        ****             
 314:main.c        **** 
 315:main.c        ****             if((FSM  == left_turn)&&(leftTurn ==1)&& (front<cmp_val)){
 821              		.loc 1 315 0
 822 03d4 ACB9     		cbnz	r4, .L50
 823              		.loc 1 315 0 is_stmt 0 discriminator 1
ARM GAS  C:\Users\FRANCI~2\AppData\Local\Temp\ccAgjSzM.s 			page 21


 824 03d6 7F4A     		ldr	r2, .L75
 825 03d8 D2F83C21 		ldr	r2, [r2, #316]
 826 03dc 012A     		cmp	r2, #1
 827 03de 10D1     		bne	.L50
 828              		.loc 1 315 0 discriminator 2
 829 03e0 7C4A     		ldr	r2, .L75
 830 03e2 D2F82021 		ldr	r2, [r2, #288]
 831 03e6 B2F5FA7F 		cmp	r2, #500
 832 03ea 0ADA     		bge	.L50
 316:main.c        ****                 leftTurn = 0;
 833              		.loc 1 316 0 is_stmt 1
 834 03ec 794A     		ldr	r2, .L75
 835 03ee 0021     		movs	r1, #0
 836 03f0 C2F83C11 		str	r1, [r2, #316]
 317:main.c        ****                 currentActionIndex++;
 837              		.loc 1 317 0
 838 03f4 0135     		adds	r5, r5, #1
 839              	.LVL70:
 318:main.c        ****                 //LED_2_Write(~LED_2_Read());
 319:main.c        ****                 
 320:main.c        ****                 FSM = left_to_straight; // go straight only
 321:main.c        ****                 leftFlag =0;
 840              		.loc 1 321 0
 841 03f6 C2F84011 		str	r1, [r2, #320]
 322:main.c        ****                 rightFlag =0;
 842              		.loc 1 322 0
 843 03fa C2F84411 		str	r1, [r2, #324]
 320:main.c        ****                 leftFlag =0;
 844              		.loc 1 320 0
 845 03fe 0624     		movs	r4, #6
 846              		.loc 1 322 0
 847 0400 4EE0     		b	.L28
 848              	.LVL71:
 849              	.L50:
 323:main.c        ****             }
 324:main.c        ****             
 325:main.c        ****             
 326:main.c        ****             else if((leftTurn == 0)&&(rightTurn == 0)){
 850              		.loc 1 326 0
 851 0402 744A     		ldr	r2, .L75
 852 0404 D2F83C21 		ldr	r2, [r2, #316]
 853 0408 002A     		cmp	r2, #0
 854 040a 49D1     		bne	.L28
 855              		.loc 1 326 0 is_stmt 0 discriminator 1
 856 040c 714A     		ldr	r2, .L75
 857 040e D2F83821 		ldr	r2, [r2, #312]
 858 0412 002A     		cmp	r2, #0
 859 0414 44D1     		bne	.L28
 860              	.LVL72:
 327:main.c        ****                  FSM = straight; // go straight only
 328:main.c        ****                  leftFlag =0;
 861              		.loc 1 328 0 is_stmt 1
 862 0416 6F4A     		ldr	r2, .L75
 863 0418 0021     		movs	r1, #0
 864 041a C2F84011 		str	r1, [r2, #320]
 329:main.c        ****                  rightFlag =0;
 865              		.loc 1 329 0
ARM GAS  C:\Users\FRANCI~2\AppData\Local\Temp\ccAgjSzM.s 			page 22


 866 041e C2F84411 		str	r1, [r2, #324]
 327:main.c        ****                  FSM = straight; // go straight only
 867              		.loc 1 327 0
 868 0422 0224     		movs	r4, #2
 869 0424 3CE0     		b	.L28
 870              	.LVL73:
 871              	.L48:
 330:main.c        ****             }
 331:main.c        **** 
 332:main.c        ****         } else if ((left > cmp_val) && (right < cmp_val) && (back<cmp_val)){
 872              		.loc 1 332 0
 873 0426 B2F5FA7F 		cmp	r2, #500
 874 042a 1BDD     		ble	.L51
 875              		.loc 1 332 0 is_stmt 0 discriminator 1
 876 042c 6949     		ldr	r1, .L75
 877 042e D1F82811 		ldr	r1, [r1, #296]
 878 0432 B1F5FA7F 		cmp	r1, #500
 879 0436 15DA     		bge	.L51
 880              		.loc 1 332 0 discriminator 2
 881 0438 6649     		ldr	r1, .L75
 882 043a D1F83411 		ldr	r1, [r1, #308]
 883 043e B1F5FA7F 		cmp	r1, #500
 884 0442 0FDA     		bge	.L51
 333:main.c        ****             
 334:main.c        ****             if((leftTurn == 0)&&(rightTurn == 0)){
 885              		.loc 1 334 0 is_stmt 1
 886 0444 634A     		ldr	r2, .L75
 887 0446 D2F83C21 		ldr	r2, [r2, #316]
 888 044a 4ABB     		cbnz	r2, .L28
 889              		.loc 1 334 0 is_stmt 0 discriminator 1
 890 044c 614A     		ldr	r2, .L75
 891 044e D2F83821 		ldr	r2, [r2, #312]
 892 0452 2ABB     		cbnz	r2, .L28
 893              	.LVL74:
 335:main.c        ****                 FSM = straight_left_adjust;
 336:main.c        ****                 leftFlag =0;
 894              		.loc 1 336 0 is_stmt 1
 895 0454 5F4A     		ldr	r2, .L75
 896 0456 0021     		movs	r1, #0
 897 0458 C2F84011 		str	r1, [r2, #320]
 337:main.c        ****                 rightFlag =0;
 898              		.loc 1 337 0
 899 045c C2F84411 		str	r1, [r2, #324]
 335:main.c        ****                 FSM = straight_left_adjust;
 900              		.loc 1 335 0
 901 0460 0424     		movs	r4, #4
 902 0462 1DE0     		b	.L28
 903              	.LVL75:
 904              	.L51:
 338:main.c        ****             }
 339:main.c        ****         
 340:main.c        ****         } else if ((left < cmp_val) && (right > cmp_val) && (back<cmp_val)) {
 905              		.loc 1 340 0
 906 0464 B2F5FA7F 		cmp	r2, #500
 907 0468 1ADA     		bge	.L28
 908              		.loc 1 340 0 is_stmt 0 discriminator 1
 909 046a 5A4A     		ldr	r2, .L75
ARM GAS  C:\Users\FRANCI~2\AppData\Local\Temp\ccAgjSzM.s 			page 23


 910 046c D2F82821 		ldr	r2, [r2, #296]
 911 0470 B2F5FA7F 		cmp	r2, #500
 912 0474 14DD     		ble	.L28
 913              		.loc 1 340 0 discriminator 2
 914 0476 574A     		ldr	r2, .L75
 915 0478 D2F83421 		ldr	r2, [r2, #308]
 916 047c B2F5FA7F 		cmp	r2, #500
 917 0480 0EDA     		bge	.L28
 341:main.c        ****             
 342:main.c        ****             if((leftTurn == 0)&&(rightTurn == 0)){
 918              		.loc 1 342 0 is_stmt 1
 919 0482 544A     		ldr	r2, .L75
 920 0484 D2F83C21 		ldr	r2, [r2, #316]
 921 0488 52B9     		cbnz	r2, .L28
 922              		.loc 1 342 0 is_stmt 0 discriminator 1
 923 048a 524A     		ldr	r2, .L75
 924 048c D2F83821 		ldr	r2, [r2, #312]
 925 0490 32B9     		cbnz	r2, .L28
 926              	.LVL76:
 343:main.c        ****                 FSM = straight_right_adjust;
 344:main.c        ****                 leftFlag =0;
 927              		.loc 1 344 0 is_stmt 1
 928 0492 504A     		ldr	r2, .L75
 929 0494 0021     		movs	r1, #0
 930 0496 C2F84011 		str	r1, [r2, #320]
 345:main.c        ****                 rightFlag =0;
 931              		.loc 1 345 0
 932 049a C2F84411 		str	r1, [r2, #324]
 343:main.c        ****                 FSM = straight_right_adjust;
 933              		.loc 1 343 0
 934 049e 0524     		movs	r4, #5
 935              	.LVL77:
 936              	.L28:
 346:main.c        ****             }    
 347:main.c        ****         }
 348:main.c        ****         
 349:main.c        ****         
 350:main.c        ****         if((FSM  == left_turn)&&(leftTurn ==11)&&(front>cmp_val)){
 937              		.loc 1 350 0
 938 04a0 74B9     		cbnz	r4, .L52
 939              		.loc 1 350 0 is_stmt 0 discriminator 1
 940 04a2 4C4A     		ldr	r2, .L75
 941 04a4 D2F83C21 		ldr	r2, [r2, #316]
 942 04a8 0B2A     		cmp	r2, #11
 943 04aa 09D1     		bne	.L52
 944              		.loc 1 350 0 discriminator 2
 945 04ac 494A     		ldr	r2, .L75
 946 04ae D2F82021 		ldr	r2, [r2, #288]
 947 04b2 B2F5FA7F 		cmp	r2, #500
 948 04b6 03DD     		ble	.L52
 351:main.c        ****                 leftFlag =1;
 949              		.loc 1 351 0 is_stmt 1
 950 04b8 0121     		movs	r1, #1
 951 04ba 464A     		ldr	r2, .L75
 952 04bc C2F84011 		str	r1, [r2, #320]
 953              	.L52:
 352:main.c        ****         }
ARM GAS  C:\Users\FRANCI~2\AppData\Local\Temp\ccAgjSzM.s 			page 24


 353:main.c        ****         
 354:main.c        ****         if((FSM  == left_turn)&&(leftTurn ==11)&&(front<cmp_val)){
 954              		.loc 1 354 0
 955 04c0 B4B9     		cbnz	r4, .L53
 956              		.loc 1 354 0 is_stmt 0 discriminator 1
 957 04c2 444A     		ldr	r2, .L75
 958 04c4 D2F83C21 		ldr	r2, [r2, #316]
 959 04c8 0B2A     		cmp	r2, #11
 960 04ca 11D1     		bne	.L53
 961              		.loc 1 354 0 discriminator 2
 962 04cc 414A     		ldr	r2, .L75
 963 04ce D2F82021 		ldr	r2, [r2, #288]
 964 04d2 B2F5FA7F 		cmp	r2, #500
 965 04d6 0BDA     		bge	.L53
 355:main.c        ****                 if(leftFlag == 1){
 966              		.loc 1 355 0 is_stmt 1
 967 04d8 3E4A     		ldr	r2, .L75
 968 04da D2F84021 		ldr	r2, [r2, #320]
 969 04de 012A     		cmp	r2, #1
 970 04e0 06D1     		bne	.L53
 356:main.c        ****                     leftFlag =0;
 971              		.loc 1 356 0
 972 04e2 3C4A     		ldr	r2, .L75
 973 04e4 0021     		movs	r1, #0
 974 04e6 C2F84011 		str	r1, [r2, #320]
 357:main.c        ****                     leftTurn = 0;  
 975              		.loc 1 357 0
 976 04ea C2F83C11 		str	r1, [r2, #316]
 358:main.c        ****                     currentActionIndex++; 
 977              		.loc 1 358 0
 978 04ee 0135     		adds	r5, r5, #1
 979              	.LVL78:
 980              	.L53:
 359:main.c        ****                     //LED_2_Write(~LED_2_Read());
 360:main.c        ****                     
 361:main.c        ****                 }
 362:main.c        ****            }
 363:main.c        ****             
 364:main.c        ****         if((FSM  == right_turn)&&(rightTurn ==22)&& (front>cmp_val)){
 981              		.loc 1 364 0
 982 04f0 012C     		cmp	r4, #1
 983 04f2 0ED1     		bne	.L54
 984              		.loc 1 364 0 is_stmt 0 discriminator 1
 985 04f4 374A     		ldr	r2, .L75
 986 04f6 D2F83821 		ldr	r2, [r2, #312]
 987 04fa 162A     		cmp	r2, #22
 988 04fc 09D1     		bne	.L54
 989              		.loc 1 364 0 discriminator 2
 990 04fe 354A     		ldr	r2, .L75
 991 0500 D2F82021 		ldr	r2, [r2, #288]
 992 0504 B2F5FA7F 		cmp	r2, #500
 993 0508 03DD     		ble	.L54
 365:main.c        ****                 rightFlag = 2;
 994              		.loc 1 365 0 is_stmt 1
 995 050a 0221     		movs	r1, #2
 996 050c 314A     		ldr	r2, .L75
 997 050e C2F84411 		str	r1, [r2, #324]
ARM GAS  C:\Users\FRANCI~2\AppData\Local\Temp\ccAgjSzM.s 			page 25


 998              	.L54:
 366:main.c        ****             }
 367:main.c        ****             
 368:main.c        ****         if((FSM  == right_turn)&&(rightTurn ==22)&& (front<cmp_val)){
 999              		.loc 1 368 0
 1000 0512 012C     		cmp	r4, #1
 1001 0514 16D1     		bne	.L55
 1002              		.loc 1 368 0 is_stmt 0 discriminator 1
 1003 0516 2F4A     		ldr	r2, .L75
 1004 0518 D2F83821 		ldr	r2, [r2, #312]
 1005 051c 162A     		cmp	r2, #22
 1006 051e 11D1     		bne	.L55
 1007              		.loc 1 368 0 discriminator 2
 1008 0520 2C4A     		ldr	r2, .L75
 1009 0522 D2F82021 		ldr	r2, [r2, #288]
 1010 0526 B2F5FA7F 		cmp	r2, #500
 1011 052a 0BDA     		bge	.L55
 369:main.c        ****                 if(rightFlag ==2){
 1012              		.loc 1 369 0 is_stmt 1
 1013 052c 294A     		ldr	r2, .L75
 1014 052e D2F84421 		ldr	r2, [r2, #324]
 1015 0532 022A     		cmp	r2, #2
 1016 0534 06D1     		bne	.L55
 370:main.c        ****                     rightTurn = 0;
 1017              		.loc 1 370 0
 1018 0536 274A     		ldr	r2, .L75
 1019 0538 0021     		movs	r1, #0
 1020 053a C2F83811 		str	r1, [r2, #312]
 371:main.c        ****                     rightFlag = 0;
 1021              		.loc 1 371 0
 1022 053e C2F84411 		str	r1, [r2, #324]
 372:main.c        ****                     currentActionIndex++;     
 1023              		.loc 1 372 0
 1024 0542 0135     		adds	r5, r5, #1
 1025              	.LVL79:
 1026              	.L55:
 373:main.c        ****                     //LED_2_Write(~LED_2_Read());
 374:main.c        ****                 }
 375:main.c        ****         }
 376:main.c        ****         
 377:main.c        **** 
 378:main.c        ****         //left turn FSM from condition check
 379:main.c        ****         if(((leftTurn ==1)||(leftTurn == 11))&&(far_left >cmp_val)){
 1027              		.loc 1 379 0
 1028 0544 234A     		ldr	r2, .L75
 1029 0546 D2F83C21 		ldr	r2, [r2, #316]
 1030 054a 012A     		cmp	r2, #1
 1031 054c 01D0     		beq	.L56
 1032              		.loc 1 379 0 is_stmt 0 discriminator 2
 1033 054e 0B2A     		cmp	r2, #11
 1034 0550 03D1     		bne	.L57
 1035              	.L56:
 1036              		.loc 1 379 0 discriminator 3
 1037 0552 B3F5FA7F 		cmp	r3, #500
 1038 0556 00DD     		ble	.L57
 380:main.c        ****             FSM = left_turn;
 1039              		.loc 1 380 0 is_stmt 1
ARM GAS  C:\Users\FRANCI~2\AppData\Local\Temp\ccAgjSzM.s 			page 26


 1040 0558 0024     		movs	r4, #0
 1041              	.LVL80:
 1042              	.L57:
 381:main.c        ****         }
 382:main.c        ****         
 383:main.c        ****         if((leftTurn == 10)&&(far_left>cmp_val)){
 1043              		.loc 1 383 0
 1044 055a 0A2A     		cmp	r2, #10
 1045 055c 07D1     		bne	.L58
 1046              		.loc 1 383 0 is_stmt 0 discriminator 1
 1047 055e B3F5FA7F 		cmp	r3, #500
 1048 0562 04DD     		ble	.L58
 384:main.c        ****             currentActionIndex++;
 1049              		.loc 1 384 0 is_stmt 1
 1050 0564 0135     		adds	r5, r5, #1
 1051              	.LVL81:
 385:main.c        ****             leftTurn = 0;
 1052              		.loc 1 385 0
 1053 0566 0022     		movs	r2, #0
 1054 0568 1A4B     		ldr	r3, .L75
 1055 056a C3F83C21 		str	r2, [r3, #316]
 1056              	.L58:
 386:main.c        ****             //LED_2_Write(~LED_2_Read());      
 387:main.c        ****         }
 388:main.c        ****         
 389:main.c        ****         //right turn FSM from condition check
 390:main.c        ****         if(((rightTurn ==2)||(rightTurn == 22))&&(far_right >cmp_val)){
 1057              		.loc 1 390 0
 1058 056e 194B     		ldr	r3, .L75
 1059 0570 D3F83831 		ldr	r3, [r3, #312]
 1060 0574 022B     		cmp	r3, #2
 1061 0576 01D0     		beq	.L59
 1062              		.loc 1 390 0 is_stmt 0 discriminator 2
 1063 0578 162B     		cmp	r3, #22
 1064 057a 06D1     		bne	.L60
 1065              	.L59:
 1066              		.loc 1 390 0 discriminator 3
 1067 057c 154A     		ldr	r2, .L75
 1068 057e D2F83021 		ldr	r2, [r2, #304]
 1069 0582 B2F5FA7F 		cmp	r2, #500
 1070 0586 00DD     		ble	.L60
 391:main.c        ****             FSM = right_turn;
 1071              		.loc 1 391 0 is_stmt 1
 1072 0588 0124     		movs	r4, #1
 1073              	.LVL82:
 1074              	.L60:
 392:main.c        ****         }
 393:main.c        ****         
 394:main.c        ****         if((rightTurn == 20)&&(far_right>cmp_val)){
 1075              		.loc 1 394 0
 1076 058a 142B     		cmp	r3, #20
 1077 058c 0AD1     		bne	.L61
 1078              		.loc 1 394 0 is_stmt 0 discriminator 1
 1079 058e 114B     		ldr	r3, .L75
 1080 0590 D3F83031 		ldr	r3, [r3, #304]
 1081 0594 B3F5FA7F 		cmp	r3, #500
 1082 0598 04DD     		ble	.L61
ARM GAS  C:\Users\FRANCI~2\AppData\Local\Temp\ccAgjSzM.s 			page 27


 395:main.c        ****             currentActionIndex++;
 1083              		.loc 1 395 0 is_stmt 1
 1084 059a 0135     		adds	r5, r5, #1
 1085              	.LVL83:
 396:main.c        ****             rightTurn = 0;
 1086              		.loc 1 396 0
 1087 059c 0022     		movs	r2, #0
 1088 059e 0D4B     		ldr	r3, .L75
 1089 05a0 C3F83821 		str	r2, [r3, #312]
 1090              	.L61:
 397:main.c        ****             //LED_2_Write(~LED_2_Read());
 398:main.c        ****         }
 399:main.c        **** 
 400:main.c        **** 
 401:main.c        ****         // FSM switch cases
 402:main.c        ****         switch(FSM) {
 1091              		.loc 1 402 0
 1092 05a4 062C     		cmp	r4, #6
 1093 05a6 3FF646AD 		bhi	.L18
 1094 05aa DFE804F0 		tbb	[pc, r4]
 1095              	.L63:
 1096 05ae 0D       		.byte	(.L62-.L63)/2
 1097 05af 15       		.byte	(.L64-.L63)/2
 1098 05b0 04       		.byte	(.L65-.L63)/2
 1099 05b1 18       		.byte	(.L66-.L63)/2
 1100 05b2 07       		.byte	(.L67-.L63)/2
 1101 05b3 0A       		.byte	(.L68-.L63)/2
 1102 05b4 10       		.byte	(.L69-.L63)/2
 1103 05b5 00       		.p2align 1
 1104              	.L65:
 403:main.c        ****          
 404:main.c        ****             case straight:
 405:main.c        ****                 GoStraight();
 1105              		.loc 1 405 0
 1106 05b6 FFF7FEFF 		bl	GoStraight
 1107              	.LVL84:
 406:main.c        ****                 break;
 1108              		.loc 1 406 0
 1109 05ba 3CE5     		b	.L18
 1110              	.L67:
 407:main.c        ****                 
 408:main.c        ****             // adjust when left sensor is out of path
 409:main.c        ****             case straight_left_adjust:
 410:main.c        ****                 ArrangeToLeft();
 1111              		.loc 1 410 0
 1112 05bc FFF7FEFF 		bl	ArrangeToLeft
 1113              	.LVL85:
 411:main.c        ****                 break;
 1114              		.loc 1 411 0
 1115 05c0 39E5     		b	.L18
 1116              	.L68:
 412:main.c        ****                 
 413:main.c        ****                 
 414:main.c        ****             // adjust when right sensor is out of path
 415:main.c        ****             case straight_right_adjust:
 416:main.c        ****                 ArrangeToRight();
 1117              		.loc 1 416 0
ARM GAS  C:\Users\FRANCI~2\AppData\Local\Temp\ccAgjSzM.s 			page 28


 1118 05c2 FFF7FEFF 		bl	ArrangeToRight
 1119              	.LVL86:
 417:main.c        ****                 break;
 1120              		.loc 1 417 0
 1121 05c6 36E5     		b	.L18
 1122              	.L62:
 418:main.c        ****                 
 419:main.c        ****             case left_turn:                  
 420:main.c        ****                 DoLeftTurn();
 1123              		.loc 1 420 0
 1124 05c8 FFF7FEFF 		bl	DoLeftTurn
 1125              	.LVL87:
 421:main.c        ****                 break;
 1126              		.loc 1 421 0
 1127 05cc 33E5     		b	.L18
 1128              	.L69:
 422:main.c        ****                             
 423:main.c        ****             case left_to_straight:
 424:main.c        ****                 
 425:main.c        ****                 DoLeftToStraight();
 1129              		.loc 1 425 0
 1130 05ce FFF7FEFF 		bl	DoLeftToStraight
 1131              	.LVL88:
 426:main.c        ****                 break;
 1132              		.loc 1 426 0
 1133 05d2 30E5     		b	.L18
 1134              	.L76:
 1135              		.align	2
 1136              	.L75:
 1137 05d4 00000000 		.word	.LANCHOR0
 1138              	.L64:
 427:main.c        ****                 
 428:main.c        ****             case right_turn:             
 429:main.c        ****                 DoRightTurn();
 1139              		.loc 1 429 0
 1140 05d8 FFF7FEFF 		bl	DoRightTurn
 1141              	.LVL89:
 430:main.c        ****                 break;
 1142              		.loc 1 430 0
 1143 05dc 2BE5     		b	.L18
 1144              	.L66:
 431:main.c        ****   
 432:main.c        ****             case stop:
 433:main.c        ****                 Stop();
 1145              		.loc 1 433 0
 1146 05de FFF7FEFF 		bl	Stop
 1147              	.LVL90:
 434:main.c        ****                 break;
 1148              		.loc 1 434 0
 1149 05e2 28E5     		b	.L18
 1150              	.LBE8:
 1151              		.cfi_endproc
 1152              	.LFE65:
 1153              		.size	main, .-main
 1154              		.global	back
 1155              		.global	far_right
 1156              		.global	far_left
ARM GAS  C:\Users\FRANCI~2\AppData\Local\Temp\ccAgjSzM.s 			page 29


 1157              		.global	right
 1158              		.global	left
 1159              		.global	front
 1160              		.global	finishTurn
 1161              		.global	rightTurn
 1162              		.global	leftTurn
 1163              		.global	array6
 1164              		.global	array5
 1165              		.global	array4
 1166              		.global	array3
 1167              		.global	array2
 1168              		.global	array
 1169              		.global	count6
 1170              		.global	count5
 1171              		.global	count4
 1172              		.global	count3
 1173              		.global	count2
 1174              		.global	count1
 1175              		.global	flag6
 1176              		.global	flag5
 1177              		.global	flag4
 1178              		.global	flag3
 1179              		.global	flag2
 1180              		.global	flag
 1181              		.global	rightFlag
 1182              		.global	leftFlag
 1183              		.global	testArray3
 1184              		.global	testArray2
 1185              		.global	testArray
 1186              		.comm	turnActionArray,2000,4
 1187              		.data
 1188              		.align	2
 1189              		.type	testArray3, %object
 1190              		.size	testArray3, 100
 1191              	testArray3:
 1192 0000 02000000 		.word	2
 1193 0004 01000000 		.word	1
 1194 0008 01000000 		.word	1
 1195 000c 02000000 		.word	2
 1196 0010 00000000 		.word	0
 1197 0014 03000000 		.word	3
 1198 0018 00000000 		.word	0
 1199 001c 01000000 		.word	1
 1200 0020 01000000 		.word	1
 1201 0024 02000000 		.word	2
 1202 0028 02000000 		.word	2
 1203 002c 01000000 		.word	1
 1204 0030 00000000 		.word	0
 1205 0034 02000000 		.word	2
 1206 0038 01000000 		.word	1
 1207 003c 01000000 		.word	1
 1208 0040 03000000 		.word	3
 1209 0044 02000000 		.word	2
 1210 0048 02000000 		.word	2
 1211 004c 00000000 		.word	0
 1212 0050 02000000 		.word	2
 1213 0054 01000000 		.word	1
ARM GAS  C:\Users\FRANCI~2\AppData\Local\Temp\ccAgjSzM.s 			page 30


 1214 0058 00000000 		.word	0
 1215 005c 01000000 		.word	1
 1216 0060 00000000 		.word	0
 1217              		.type	testArray2, %object
 1218              		.size	testArray2, 84
 1219              	testArray2:
 1220 0064 01000000 		.word	1
 1221 0068 02000000 		.word	2
 1222 006c 00000000 		.word	0
 1223 0070 01000000 		.word	1
 1224 0074 01000000 		.word	1
 1225 0078 02000000 		.word	2
 1226 007c 02000000 		.word	2
 1227 0080 01000000 		.word	1
 1228 0084 01000000 		.word	1
 1229 0088 02000000 		.word	2
 1230 008c 02000000 		.word	2
 1231 0090 01000000 		.word	1
 1232 0094 01000000 		.word	1
 1233 0098 03000000 		.word	3
 1234 009c 02000000 		.word	2
 1235 00a0 02000000 		.word	2
 1236 00a4 00000000 		.word	0
 1237 00a8 02000000 		.word	2
 1238 00ac 01000000 		.word	1
 1239 00b0 01000000 		.word	1
 1240 00b4 01000000 		.word	1
 1241              		.type	testArray, %object
 1242              		.size	testArray, 56
 1243              	testArray:
 1244 00b8 03000000 		.word	3
 1245 00bc 03000000 		.word	3
 1246 00c0 00000000 		.word	0
 1247 00c4 01000000 		.word	1
 1248 00c8 02000000 		.word	2
 1249 00cc 01000000 		.word	1
 1250 00d0 01000000 		.word	1
 1251 00d4 00000000 		.word	0
 1252 00d8 01000000 		.word	1
 1253 00dc 02000000 		.word	2
 1254 00e0 00000000 		.word	0
 1255 00e4 00000000 		.word	0
 1256 00e8 02000000 		.word	2
 1257 00ec 01000000 		.word	1
 1258              		.bss
 1259              		.align	2
 1260              		.set	.LANCHOR0,. + 0
 1261              		.type	count1, %object
 1262              		.size	count1, 4
 1263              	count1:
 1264 0000 00000000 		.space	4
 1265              		.type	array, %object
 1266              		.size	array, 40
 1267              	array:
 1268 0004 00000000 		.space	40
 1268      00000000 
 1268      00000000 
ARM GAS  C:\Users\FRANCI~2\AppData\Local\Temp\ccAgjSzM.s 			page 31


 1268      00000000 
 1268      00000000 
 1269              		.type	flag, %object
 1270              		.size	flag, 4
 1271              	flag:
 1272 002c 00000000 		.space	4
 1273              		.type	count2, %object
 1274              		.size	count2, 4
 1275              	count2:
 1276 0030 00000000 		.space	4
 1277              		.type	array2, %object
 1278              		.size	array2, 40
 1279              	array2:
 1280 0034 00000000 		.space	40
 1280      00000000 
 1280      00000000 
 1280      00000000 
 1280      00000000 
 1281              		.type	flag2, %object
 1282              		.size	flag2, 4
 1283              	flag2:
 1284 005c 00000000 		.space	4
 1285              		.type	count3, %object
 1286              		.size	count3, 4
 1287              	count3:
 1288 0060 00000000 		.space	4
 1289              		.type	array3, %object
 1290              		.size	array3, 40
 1291              	array3:
 1292 0064 00000000 		.space	40
 1292      00000000 
 1292      00000000 
 1292      00000000 
 1292      00000000 
 1293              		.type	flag3, %object
 1294              		.size	flag3, 4
 1295              	flag3:
 1296 008c 00000000 		.space	4
 1297              		.type	count4, %object
 1298              		.size	count4, 4
 1299              	count4:
 1300 0090 00000000 		.space	4
 1301              		.type	array4, %object
 1302              		.size	array4, 40
 1303              	array4:
 1304 0094 00000000 		.space	40
 1304      00000000 
 1304      00000000 
 1304      00000000 
 1304      00000000 
 1305              		.type	flag4, %object
 1306              		.size	flag4, 4
 1307              	flag4:
 1308 00bc 00000000 		.space	4
 1309              		.type	count5, %object
 1310              		.size	count5, 4
 1311              	count5:
ARM GAS  C:\Users\FRANCI~2\AppData\Local\Temp\ccAgjSzM.s 			page 32


 1312 00c0 00000000 		.space	4
 1313              		.type	array5, %object
 1314              		.size	array5, 40
 1315              	array5:
 1316 00c4 00000000 		.space	40
 1316      00000000 
 1316      00000000 
 1316      00000000 
 1316      00000000 
 1317              		.type	flag5, %object
 1318              		.size	flag5, 4
 1319              	flag5:
 1320 00ec 00000000 		.space	4
 1321              		.type	count6, %object
 1322              		.size	count6, 4
 1323              	count6:
 1324 00f0 00000000 		.space	4
 1325              		.type	array6, %object
 1326              		.size	array6, 40
 1327              	array6:
 1328 00f4 00000000 		.space	40
 1328      00000000 
 1328      00000000 
 1328      00000000 
 1328      00000000 
 1329              		.type	flag6, %object
 1330              		.size	flag6, 4
 1331              	flag6:
 1332 011c 00000000 		.space	4
 1333              		.type	front, %object
 1334              		.size	front, 4
 1335              	front:
 1336 0120 00000000 		.space	4
 1337              		.type	left, %object
 1338              		.size	left, 4
 1339              	left:
 1340 0124 00000000 		.space	4
 1341              		.type	right, %object
 1342              		.size	right, 4
 1343              	right:
 1344 0128 00000000 		.space	4
 1345              		.type	far_left, %object
 1346              		.size	far_left, 4
 1347              	far_left:
 1348 012c 00000000 		.space	4
 1349              		.type	far_right, %object
 1350              		.size	far_right, 4
 1351              	far_right:
 1352 0130 00000000 		.space	4
 1353              		.type	back, %object
 1354              		.size	back, 4
 1355              	back:
 1356 0134 00000000 		.space	4
 1357              		.type	rightTurn, %object
 1358              		.size	rightTurn, 4
 1359              	rightTurn:
 1360 0138 00000000 		.space	4
ARM GAS  C:\Users\FRANCI~2\AppData\Local\Temp\ccAgjSzM.s 			page 33


 1361              		.type	leftTurn, %object
 1362              		.size	leftTurn, 4
 1363              	leftTurn:
 1364 013c 00000000 		.space	4
 1365              		.type	leftFlag, %object
 1366              		.size	leftFlag, 4
 1367              	leftFlag:
 1368 0140 00000000 		.space	4
 1369              		.type	rightFlag, %object
 1370              		.size	rightFlag, 4
 1371              	rightFlag:
 1372 0144 00000000 		.space	4
 1373              		.type	finishTurn, %object
 1374              		.size	finishTurn, 4
 1375              	finishTurn:
 1376 0148 00000000 		.space	4
 1377              		.text
 1378              	.Letext0:
 1379              		.file 2 "c:\\program files (x86)\\cypress\\psoc creator\\4.2\\psoc creator\\import\\gnu\\arm\\5.4.
 1380              		.file 3 "c:\\program files (x86)\\cypress\\psoc creator\\4.2\\psoc creator\\import\\gnu\\arm\\5.4.
 1381              		.file 4 "Generated_Source\\PSoC5/core_cm3.h"
 1382              		.file 5 "Generated_Source\\PSoC5/ADC_SAR_Seq_1.h"
 1383              		.file 6 "functions.h"
 1384              		.file 7 "Generated_Source\\PSoC5/isr_EOC_3.h"
 1385              		.file 8 "Generated_Source\\PSoC5/USBUART_1.h"
 1386              		.file 9 "Generated_Source\\PSoC5/Timer_2.h"
 1387              		.file 10 "algorithm.h"
 1388              		.file 11 "Generated_Source\\PSoC5/LED_1.h"
 1389              		.file 12 "Generated_Source\\PSoC5/LED_2.h"
 1390              		.file 13 "Generated_Source\\PSoC5/LED_3.h"